
rtarget:     file format elf64-x86-64


Disassembly of section .init:

0000000000400b90 <_init>:
  400b90:	48 83 ec 08          	sub    $0x8,%rsp
  400b94:	48 8b 05 95 38 20 00 	mov    0x203895(%rip),%rax        # 604430 <_DYNAMIC+0x1d0>
  400b9b:	48 85 c0             	test   %rax,%rax
  400b9e:	74 05                	je     400ba5 <_init+0x15>
  400ba0:	e8 2b 01 00 00       	callq  400cd0 <__gmon_start__@plt>
  400ba5:	48 83 c4 08          	add    $0x8,%rsp
  400ba9:	c3                   	retq   

Disassembly of section .plt:

0000000000400bb0 <strcasecmp@plt-0x10>:
  400bb0:	ff 35 8a 38 20 00    	pushq  0x20388a(%rip)        # 604440 <_GLOBAL_OFFSET_TABLE_+0x8>
  400bb6:	ff 25 8c 38 20 00    	jmpq   *0x20388c(%rip)        # 604448 <_GLOBAL_OFFSET_TABLE_+0x10>
  400bbc:	0f 1f 40 00          	nopl   0x0(%rax)

0000000000400bc0 <strcasecmp@plt>:
  400bc0:	ff 25 8a 38 20 00    	jmpq   *0x20388a(%rip)        # 604450 <_GLOBAL_OFFSET_TABLE_+0x18>
  400bc6:	68 00 00 00 00       	pushq  $0x0
  400bcb:	e9 e0 ff ff ff       	jmpq   400bb0 <_init+0x20>

0000000000400bd0 <__errno_location@plt>:
  400bd0:	ff 25 82 38 20 00    	jmpq   *0x203882(%rip)        # 604458 <_GLOBAL_OFFSET_TABLE_+0x20>
  400bd6:	68 01 00 00 00       	pushq  $0x1
  400bdb:	e9 d0 ff ff ff       	jmpq   400bb0 <_init+0x20>

0000000000400be0 <srandom@plt>:
  400be0:	ff 25 7a 38 20 00    	jmpq   *0x20387a(%rip)        # 604460 <_GLOBAL_OFFSET_TABLE_+0x28>
  400be6:	68 02 00 00 00       	pushq  $0x2
  400beb:	e9 c0 ff ff ff       	jmpq   400bb0 <_init+0x20>

0000000000400bf0 <strncmp@plt>:
  400bf0:	ff 25 72 38 20 00    	jmpq   *0x203872(%rip)        # 604468 <_GLOBAL_OFFSET_TABLE_+0x30>
  400bf6:	68 03 00 00 00       	pushq  $0x3
  400bfb:	e9 b0 ff ff ff       	jmpq   400bb0 <_init+0x20>

0000000000400c00 <strcpy@plt>:
  400c00:	ff 25 6a 38 20 00    	jmpq   *0x20386a(%rip)        # 604470 <_GLOBAL_OFFSET_TABLE_+0x38>
  400c06:	68 04 00 00 00       	pushq  $0x4
  400c0b:	e9 a0 ff ff ff       	jmpq   400bb0 <_init+0x20>

0000000000400c10 <puts@plt>:
  400c10:	ff 25 62 38 20 00    	jmpq   *0x203862(%rip)        # 604478 <_GLOBAL_OFFSET_TABLE_+0x40>
  400c16:	68 05 00 00 00       	pushq  $0x5
  400c1b:	e9 90 ff ff ff       	jmpq   400bb0 <_init+0x20>

0000000000400c20 <write@plt>:
  400c20:	ff 25 5a 38 20 00    	jmpq   *0x20385a(%rip)        # 604480 <_GLOBAL_OFFSET_TABLE_+0x48>
  400c26:	68 06 00 00 00       	pushq  $0x6
  400c2b:	e9 80 ff ff ff       	jmpq   400bb0 <_init+0x20>

0000000000400c30 <mmap@plt>:
  400c30:	ff 25 52 38 20 00    	jmpq   *0x203852(%rip)        # 604488 <_GLOBAL_OFFSET_TABLE_+0x50>
  400c36:	68 07 00 00 00       	pushq  $0x7
  400c3b:	e9 70 ff ff ff       	jmpq   400bb0 <_init+0x20>

0000000000400c40 <printf@plt>:
  400c40:	ff 25 4a 38 20 00    	jmpq   *0x20384a(%rip)        # 604490 <_GLOBAL_OFFSET_TABLE_+0x58>
  400c46:	68 08 00 00 00       	pushq  $0x8
  400c4b:	e9 60 ff ff ff       	jmpq   400bb0 <_init+0x20>

0000000000400c50 <memset@plt>:
  400c50:	ff 25 42 38 20 00    	jmpq   *0x203842(%rip)        # 604498 <_GLOBAL_OFFSET_TABLE_+0x60>
  400c56:	68 09 00 00 00       	pushq  $0x9
  400c5b:	e9 50 ff ff ff       	jmpq   400bb0 <_init+0x20>

0000000000400c60 <alarm@plt>:
  400c60:	ff 25 3a 38 20 00    	jmpq   *0x20383a(%rip)        # 6044a0 <_GLOBAL_OFFSET_TABLE_+0x68>
  400c66:	68 0a 00 00 00       	pushq  $0xa
  400c6b:	e9 40 ff ff ff       	jmpq   400bb0 <_init+0x20>

0000000000400c70 <close@plt>:
  400c70:	ff 25 32 38 20 00    	jmpq   *0x203832(%rip)        # 6044a8 <_GLOBAL_OFFSET_TABLE_+0x70>
  400c76:	68 0b 00 00 00       	pushq  $0xb
  400c7b:	e9 30 ff ff ff       	jmpq   400bb0 <_init+0x20>

0000000000400c80 <read@plt>:
  400c80:	ff 25 2a 38 20 00    	jmpq   *0x20382a(%rip)        # 6044b0 <_GLOBAL_OFFSET_TABLE_+0x78>
  400c86:	68 0c 00 00 00       	pushq  $0xc
  400c8b:	e9 20 ff ff ff       	jmpq   400bb0 <_init+0x20>

0000000000400c90 <__libc_start_main@plt>:
  400c90:	ff 25 22 38 20 00    	jmpq   *0x203822(%rip)        # 6044b8 <_GLOBAL_OFFSET_TABLE_+0x80>
  400c96:	68 0d 00 00 00       	pushq  $0xd
  400c9b:	e9 10 ff ff ff       	jmpq   400bb0 <_init+0x20>

0000000000400ca0 <signal@plt>:
  400ca0:	ff 25 1a 38 20 00    	jmpq   *0x20381a(%rip)        # 6044c0 <_GLOBAL_OFFSET_TABLE_+0x88>
  400ca6:	68 0e 00 00 00       	pushq  $0xe
  400cab:	e9 00 ff ff ff       	jmpq   400bb0 <_init+0x20>

0000000000400cb0 <gethostbyname@plt>:
  400cb0:	ff 25 12 38 20 00    	jmpq   *0x203812(%rip)        # 6044c8 <_GLOBAL_OFFSET_TABLE_+0x90>
  400cb6:	68 0f 00 00 00       	pushq  $0xf
  400cbb:	e9 f0 fe ff ff       	jmpq   400bb0 <_init+0x20>

0000000000400cc0 <fprintf@plt>:
  400cc0:	ff 25 0a 38 20 00    	jmpq   *0x20380a(%rip)        # 6044d0 <_GLOBAL_OFFSET_TABLE_+0x98>
  400cc6:	68 10 00 00 00       	pushq  $0x10
  400ccb:	e9 e0 fe ff ff       	jmpq   400bb0 <_init+0x20>

0000000000400cd0 <__gmon_start__@plt>:
  400cd0:	ff 25 02 38 20 00    	jmpq   *0x203802(%rip)        # 6044d8 <_GLOBAL_OFFSET_TABLE_+0xa0>
  400cd6:	68 11 00 00 00       	pushq  $0x11
  400cdb:	e9 d0 fe ff ff       	jmpq   400bb0 <_init+0x20>

0000000000400ce0 <strtol@plt>:
  400ce0:	ff 25 fa 37 20 00    	jmpq   *0x2037fa(%rip)        # 6044e0 <_GLOBAL_OFFSET_TABLE_+0xa8>
  400ce6:	68 12 00 00 00       	pushq  $0x12
  400ceb:	e9 c0 fe ff ff       	jmpq   400bb0 <_init+0x20>

0000000000400cf0 <memcpy@plt>:
  400cf0:	ff 25 f2 37 20 00    	jmpq   *0x2037f2(%rip)        # 6044e8 <_GLOBAL_OFFSET_TABLE_+0xb0>
  400cf6:	68 13 00 00 00       	pushq  $0x13
  400cfb:	e9 b0 fe ff ff       	jmpq   400bb0 <_init+0x20>

0000000000400d00 <time@plt>:
  400d00:	ff 25 ea 37 20 00    	jmpq   *0x2037ea(%rip)        # 6044f0 <_GLOBAL_OFFSET_TABLE_+0xb8>
  400d06:	68 14 00 00 00       	pushq  $0x14
  400d0b:	e9 a0 fe ff ff       	jmpq   400bb0 <_init+0x20>

0000000000400d10 <random@plt>:
  400d10:	ff 25 e2 37 20 00    	jmpq   *0x2037e2(%rip)        # 6044f8 <_GLOBAL_OFFSET_TABLE_+0xc0>
  400d16:	68 15 00 00 00       	pushq  $0x15
  400d1b:	e9 90 fe ff ff       	jmpq   400bb0 <_init+0x20>

0000000000400d20 <_IO_getc@plt>:
  400d20:	ff 25 da 37 20 00    	jmpq   *0x2037da(%rip)        # 604500 <_GLOBAL_OFFSET_TABLE_+0xc8>
  400d26:	68 16 00 00 00       	pushq  $0x16
  400d2b:	e9 80 fe ff ff       	jmpq   400bb0 <_init+0x20>

0000000000400d30 <__isoc99_sscanf@plt>:
  400d30:	ff 25 d2 37 20 00    	jmpq   *0x2037d2(%rip)        # 604508 <_GLOBAL_OFFSET_TABLE_+0xd0>
  400d36:	68 17 00 00 00       	pushq  $0x17
  400d3b:	e9 70 fe ff ff       	jmpq   400bb0 <_init+0x20>

0000000000400d40 <munmap@plt>:
  400d40:	ff 25 ca 37 20 00    	jmpq   *0x2037ca(%rip)        # 604510 <_GLOBAL_OFFSET_TABLE_+0xd8>
  400d46:	68 18 00 00 00       	pushq  $0x18
  400d4b:	e9 60 fe ff ff       	jmpq   400bb0 <_init+0x20>

0000000000400d50 <bcopy@plt>:
  400d50:	ff 25 c2 37 20 00    	jmpq   *0x2037c2(%rip)        # 604518 <_GLOBAL_OFFSET_TABLE_+0xe0>
  400d56:	68 19 00 00 00       	pushq  $0x19
  400d5b:	e9 50 fe ff ff       	jmpq   400bb0 <_init+0x20>

0000000000400d60 <fopen@plt>:
  400d60:	ff 25 ba 37 20 00    	jmpq   *0x2037ba(%rip)        # 604520 <_GLOBAL_OFFSET_TABLE_+0xe8>
  400d66:	68 1a 00 00 00       	pushq  $0x1a
  400d6b:	e9 40 fe ff ff       	jmpq   400bb0 <_init+0x20>

0000000000400d70 <getopt@plt>:
  400d70:	ff 25 b2 37 20 00    	jmpq   *0x2037b2(%rip)        # 604528 <_GLOBAL_OFFSET_TABLE_+0xf0>
  400d76:	68 1b 00 00 00       	pushq  $0x1b
  400d7b:	e9 30 fe ff ff       	jmpq   400bb0 <_init+0x20>

0000000000400d80 <strtoul@plt>:
  400d80:	ff 25 aa 37 20 00    	jmpq   *0x2037aa(%rip)        # 604530 <_GLOBAL_OFFSET_TABLE_+0xf8>
  400d86:	68 1c 00 00 00       	pushq  $0x1c
  400d8b:	e9 20 fe ff ff       	jmpq   400bb0 <_init+0x20>

0000000000400d90 <gethostname@plt>:
  400d90:	ff 25 a2 37 20 00    	jmpq   *0x2037a2(%rip)        # 604538 <_GLOBAL_OFFSET_TABLE_+0x100>
  400d96:	68 1d 00 00 00       	pushq  $0x1d
  400d9b:	e9 10 fe ff ff       	jmpq   400bb0 <_init+0x20>

0000000000400da0 <sprintf@plt>:
  400da0:	ff 25 9a 37 20 00    	jmpq   *0x20379a(%rip)        # 604540 <_GLOBAL_OFFSET_TABLE_+0x108>
  400da6:	68 1e 00 00 00       	pushq  $0x1e
  400dab:	e9 00 fe ff ff       	jmpq   400bb0 <_init+0x20>

0000000000400db0 <exit@plt>:
  400db0:	ff 25 92 37 20 00    	jmpq   *0x203792(%rip)        # 604548 <_GLOBAL_OFFSET_TABLE_+0x110>
  400db6:	68 1f 00 00 00       	pushq  $0x1f
  400dbb:	e9 f0 fd ff ff       	jmpq   400bb0 <_init+0x20>

0000000000400dc0 <connect@plt>:
  400dc0:	ff 25 8a 37 20 00    	jmpq   *0x20378a(%rip)        # 604550 <_GLOBAL_OFFSET_TABLE_+0x118>
  400dc6:	68 20 00 00 00       	pushq  $0x20
  400dcb:	e9 e0 fd ff ff       	jmpq   400bb0 <_init+0x20>

0000000000400dd0 <socket@plt>:
  400dd0:	ff 25 82 37 20 00    	jmpq   *0x203782(%rip)        # 604558 <_GLOBAL_OFFSET_TABLE_+0x120>
  400dd6:	68 21 00 00 00       	pushq  $0x21
  400ddb:	e9 d0 fd ff ff       	jmpq   400bb0 <_init+0x20>

Disassembly of section .text:

0000000000400de0 <_start>:
  400de0:	31 ed                	xor    %ebp,%ebp
  400de2:	49 89 d1             	mov    %rdx,%r9
  400de5:	5e                   	pop    %rsi
  400de6:	48 89 e2             	mov    %rsp,%rdx
  400de9:	48 83 e4 f0          	and    $0xfffffffffffffff0,%rsp
  400ded:	50                   	push   %rax
  400dee:	54                   	push   %rsp
  400def:	49 c7 c0 50 2d 40 00 	mov    $0x402d50,%r8
  400df6:	48 c7 c1 e0 2c 40 00 	mov    $0x402ce0,%rcx
  400dfd:	48 c7 c7 a0 10 40 00 	mov    $0x4010a0,%rdi
  400e04:	e8 87 fe ff ff       	callq  400c90 <__libc_start_main@plt>
  400e09:	f4                   	hlt    
  400e0a:	66 90                	xchg   %ax,%ax
  400e0c:	0f 1f 40 00          	nopl   0x0(%rax)

0000000000400e10 <deregister_tm_clones>:
  400e10:	b8 d7 48 60 00       	mov    $0x6048d7,%eax
  400e15:	55                   	push   %rbp
  400e16:	48 2d d0 48 60 00    	sub    $0x6048d0,%rax
  400e1c:	48 83 f8 0e          	cmp    $0xe,%rax
  400e20:	48 89 e5             	mov    %rsp,%rbp
  400e23:	77 02                	ja     400e27 <deregister_tm_clones+0x17>
  400e25:	5d                   	pop    %rbp
  400e26:	c3                   	retq   
  400e27:	b8 00 00 00 00       	mov    $0x0,%eax
  400e2c:	48 85 c0             	test   %rax,%rax
  400e2f:	74 f4                	je     400e25 <deregister_tm_clones+0x15>
  400e31:	5d                   	pop    %rbp
  400e32:	bf d0 48 60 00       	mov    $0x6048d0,%edi
  400e37:	ff e0                	jmpq   *%rax
  400e39:	0f 1f 80 00 00 00 00 	nopl   0x0(%rax)

0000000000400e40 <register_tm_clones>:
  400e40:	b8 d0 48 60 00       	mov    $0x6048d0,%eax
  400e45:	55                   	push   %rbp
  400e46:	48 2d d0 48 60 00    	sub    $0x6048d0,%rax
  400e4c:	48 c1 f8 03          	sar    $0x3,%rax
  400e50:	48 89 e5             	mov    %rsp,%rbp
  400e53:	48 89 c2             	mov    %rax,%rdx
  400e56:	48 c1 ea 3f          	shr    $0x3f,%rdx
  400e5a:	48 01 d0             	add    %rdx,%rax
  400e5d:	48 d1 f8             	sar    %rax
  400e60:	75 02                	jne    400e64 <register_tm_clones+0x24>
  400e62:	5d                   	pop    %rbp
  400e63:	c3                   	retq   
  400e64:	ba 00 00 00 00       	mov    $0x0,%edx
  400e69:	48 85 d2             	test   %rdx,%rdx
  400e6c:	74 f4                	je     400e62 <register_tm_clones+0x22>
  400e6e:	5d                   	pop    %rbp
  400e6f:	48 89 c6             	mov    %rax,%rsi
  400e72:	bf d0 48 60 00       	mov    $0x6048d0,%edi
  400e77:	ff e2                	jmpq   *%rdx
  400e79:	0f 1f 80 00 00 00 00 	nopl   0x0(%rax)

0000000000400e80 <__do_global_dtors_aux>:
  400e80:	80 3d 71 3a 20 00 00 	cmpb   $0x0,0x203a71(%rip)        # 6048f8 <completed.6342>
  400e87:	75 11                	jne    400e9a <__do_global_dtors_aux+0x1a>
  400e89:	55                   	push   %rbp
  400e8a:	48 89 e5             	mov    %rsp,%rbp
  400e8d:	e8 7e ff ff ff       	callq  400e10 <deregister_tm_clones>
  400e92:	5d                   	pop    %rbp
  400e93:	c6 05 5e 3a 20 00 01 	movb   $0x1,0x203a5e(%rip)        # 6048f8 <completed.6342>
  400e9a:	f3 c3                	repz retq 
  400e9c:	0f 1f 40 00          	nopl   0x0(%rax)

0000000000400ea0 <frame_dummy>:
  400ea0:	48 83 3d b0 33 20 00 	cmpq   $0x0,0x2033b0(%rip)        # 604258 <__JCR_END__>
  400ea7:	00 
  400ea8:	74 1e                	je     400ec8 <frame_dummy+0x28>
  400eaa:	b8 00 00 00 00       	mov    $0x0,%eax
  400eaf:	48 85 c0             	test   %rax,%rax
  400eb2:	74 14                	je     400ec8 <frame_dummy+0x28>
  400eb4:	55                   	push   %rbp
  400eb5:	bf 58 42 60 00       	mov    $0x604258,%edi
  400eba:	48 89 e5             	mov    %rsp,%rbp
  400ebd:	ff d0                	callq  *%rax
  400ebf:	5d                   	pop    %rbp
  400ec0:	e9 7b ff ff ff       	jmpq   400e40 <register_tm_clones>
  400ec5:	0f 1f 00             	nopl   (%rax)
  400ec8:	e9 73 ff ff ff       	jmpq   400e40 <register_tm_clones>
  400ecd:	0f 1f 00             	nopl   (%rax)

0000000000400ed0 <usage>:
  400ed0:	48 83 ec 08          	sub    $0x8,%rsp
  400ed4:	48 89 fe             	mov    %rdi,%rsi
  400ed7:	83 3d 4a 3a 20 00 00 	cmpl   $0x0,0x203a4a(%rip)        # 604928 <is_checker>
  400ede:	74 39                	je     400f19 <usage+0x49>
  400ee0:	bf 70 2d 40 00       	mov    $0x402d70,%edi
  400ee5:	b8 00 00 00 00       	mov    $0x0,%eax
  400eea:	e8 51 fd ff ff       	callq  400c40 <printf@plt>
  400eef:	bf a8 2d 40 00       	mov    $0x402da8,%edi
  400ef4:	e8 17 fd ff ff       	callq  400c10 <puts@plt>
  400ef9:	bf 20 2f 40 00       	mov    $0x402f20,%edi
  400efe:	e8 0d fd ff ff       	callq  400c10 <puts@plt>
  400f03:	bf d0 2d 40 00       	mov    $0x402dd0,%edi
  400f08:	e8 03 fd ff ff       	callq  400c10 <puts@plt>
  400f0d:	bf 3a 2f 40 00       	mov    $0x402f3a,%edi
  400f12:	e8 f9 fc ff ff       	callq  400c10 <puts@plt>
  400f17:	eb 2d                	jmp    400f46 <usage+0x76>
  400f19:	bf 56 2f 40 00       	mov    $0x402f56,%edi
  400f1e:	b8 00 00 00 00       	mov    $0x0,%eax
  400f23:	e8 18 fd ff ff       	callq  400c40 <printf@plt>
  400f28:	bf f8 2d 40 00       	mov    $0x402df8,%edi
  400f2d:	e8 de fc ff ff       	callq  400c10 <puts@plt>
  400f32:	bf 20 2e 40 00       	mov    $0x402e20,%edi
  400f37:	e8 d4 fc ff ff       	callq  400c10 <puts@plt>
  400f3c:	bf 74 2f 40 00       	mov    $0x402f74,%edi
  400f41:	e8 ca fc ff ff       	callq  400c10 <puts@plt>
  400f46:	bf 00 00 00 00       	mov    $0x0,%edi
  400f4b:	e8 60 fe ff ff       	callq  400db0 <exit@plt>

0000000000400f50 <initialize_target>:
  400f50:	55                   	push   %rbp
  400f51:	53                   	push   %rbx
  400f52:	48 81 ec 08 21 00 00 	sub    $0x2108,%rsp
  400f59:	89 f5                	mov    %esi,%ebp
  400f5b:	89 3d b7 39 20 00    	mov    %edi,0x2039b7(%rip)        # 604918 <check_level>
  400f61:	8b 3d 21 36 20 00    	mov    0x203621(%rip),%edi        # 604588 <target_id>
  400f67:	e8 46 1d 00 00       	callq  402cb2 <gencookie>
  400f6c:	89 05 b2 39 20 00    	mov    %eax,0x2039b2(%rip)        # 604924 <cookie>
  400f72:	89 c7                	mov    %eax,%edi
  400f74:	e8 39 1d 00 00       	callq  402cb2 <gencookie>
  400f79:	89 05 a1 39 20 00    	mov    %eax,0x2039a1(%rip)        # 604920 <authkey>
  400f7f:	8b 05 03 36 20 00    	mov    0x203603(%rip),%eax        # 604588 <target_id>
  400f85:	8d 78 01             	lea    0x1(%rax),%edi
  400f88:	e8 53 fc ff ff       	callq  400be0 <srandom@plt>
  400f8d:	e8 7e fd ff ff       	callq  400d10 <random@plt>
  400f92:	89 c7                	mov    %eax,%edi
  400f94:	e8 cb 02 00 00       	callq  401264 <scramble>
  400f99:	89 c3                	mov    %eax,%ebx
  400f9b:	85 ed                	test   %ebp,%ebp
  400f9d:	74 18                	je     400fb7 <initialize_target+0x67>
  400f9f:	bf 00 00 00 00       	mov    $0x0,%edi
  400fa4:	e8 57 fd ff ff       	callq  400d00 <time@plt>
  400fa9:	89 c7                	mov    %eax,%edi
  400fab:	e8 30 fc ff ff       	callq  400be0 <srandom@plt>
  400fb0:	e8 5b fd ff ff       	callq  400d10 <random@plt>
  400fb5:	eb 05                	jmp    400fbc <initialize_target+0x6c>
  400fb7:	b8 00 00 00 00       	mov    $0x0,%eax
  400fbc:	01 c3                	add    %eax,%ebx
  400fbe:	0f b7 db             	movzwl %bx,%ebx
  400fc1:	8d 04 dd 00 01 00 00 	lea    0x100(,%rbx,8),%eax
  400fc8:	89 c0                	mov    %eax,%eax
  400fca:	48 89 05 ef 38 20 00 	mov    %rax,0x2038ef(%rip)        # 6048c0 <buf_offset>
  400fd1:	c6 05 70 45 20 00 72 	movb   $0x72,0x204570(%rip)        # 605548 <target_prefix>
  400fd8:	83 3d e9 38 20 00 00 	cmpl   $0x0,0x2038e9(%rip)        # 6048c8 <notify>
  400fdf:	0f 84 b1 00 00 00    	je     401096 <initialize_target+0x146>
  400fe5:	83 3d 3c 39 20 00 00 	cmpl   $0x0,0x20393c(%rip)        # 604928 <is_checker>
  400fec:	0f 85 a4 00 00 00    	jne    401096 <initialize_target+0x146>
  400ff2:	be 00 01 00 00       	mov    $0x100,%esi
  400ff7:	48 89 e7             	mov    %rsp,%rdi
  400ffa:	e8 91 fd ff ff       	callq  400d90 <gethostname@plt>
  400fff:	85 c0                	test   %eax,%eax
  401001:	74 25                	je     401028 <initialize_target+0xd8>
  401003:	bf 50 2e 40 00       	mov    $0x402e50,%edi
  401008:	e8 03 fc ff ff       	callq  400c10 <puts@plt>
  40100d:	bf 08 00 00 00       	mov    $0x8,%edi
  401012:	e8 99 fd ff ff       	callq  400db0 <exit@plt>
  401017:	48 89 e6             	mov    %rsp,%rsi
  40101a:	e8 a1 fb ff ff       	callq  400bc0 <strcasecmp@plt>
  40101f:	85 c0                	test   %eax,%eax
  401021:	74 21                	je     401044 <initialize_target+0xf4>
  401023:	83 c3 01             	add    $0x1,%ebx
  401026:	eb 05                	jmp    40102d <initialize_target+0xdd>
  401028:	bb 00 00 00 00       	mov    $0x0,%ebx
  40102d:	48 63 c3             	movslq %ebx,%rax
  401030:	48 8b 3c c5 a0 45 60 	mov    0x6045a0(,%rax,8),%rdi
  401037:	00 
  401038:	48 85 ff             	test   %rdi,%rdi
  40103b:	75 da                	jne    401017 <initialize_target+0xc7>
  40103d:	b8 00 00 00 00       	mov    $0x0,%eax
  401042:	eb 05                	jmp    401049 <initialize_target+0xf9>
  401044:	b8 01 00 00 00       	mov    $0x1,%eax
  401049:	85 c0                	test   %eax,%eax
  40104b:	75 17                	jne    401064 <initialize_target+0x114>
  40104d:	48 89 e6             	mov    %rsp,%rsi
  401050:	bf 88 2e 40 00       	mov    $0x402e88,%edi
  401055:	e8 e6 fb ff ff       	callq  400c40 <printf@plt>
  40105a:	bf 08 00 00 00       	mov    $0x8,%edi
  40105f:	e8 4c fd ff ff       	callq  400db0 <exit@plt>
  401064:	48 8d bc 24 00 01 00 	lea    0x100(%rsp),%rdi
  40106b:	00 
  40106c:	e8 c9 19 00 00       	callq  402a3a <init_driver>
  401071:	85 c0                	test   %eax,%eax
  401073:	79 21                	jns    401096 <initialize_target+0x146>
  401075:	48 8d b4 24 00 01 00 	lea    0x100(%rsp),%rsi
  40107c:	00 
  40107d:	bf c8 2e 40 00       	mov    $0x402ec8,%edi
  401082:	b8 00 00 00 00       	mov    $0x0,%eax
  401087:	e8 b4 fb ff ff       	callq  400c40 <printf@plt>
  40108c:	bf 08 00 00 00       	mov    $0x8,%edi
  401091:	e8 1a fd ff ff       	callq  400db0 <exit@plt>
  401096:	48 81 c4 08 21 00 00 	add    $0x2108,%rsp
  40109d:	5b                   	pop    %rbx
  40109e:	5d                   	pop    %rbp
  40109f:	c3                   	retq   

00000000004010a0 <main>:
  4010a0:	41 56                	push   %r14
  4010a2:	41 55                	push   %r13
  4010a4:	41 54                	push   %r12
  4010a6:	55                   	push   %rbp
  4010a7:	53                   	push   %rbx
  4010a8:	41 89 fc             	mov    %edi,%r12d
  4010ab:	48 89 f3             	mov    %rsi,%rbx
  4010ae:	be 61 1e 40 00       	mov    $0x401e61,%esi
  4010b3:	bf 0b 00 00 00       	mov    $0xb,%edi
  4010b8:	e8 e3 fb ff ff       	callq  400ca0 <signal@plt>
  4010bd:	be 13 1e 40 00       	mov    $0x401e13,%esi
  4010c2:	bf 07 00 00 00       	mov    $0x7,%edi
  4010c7:	e8 d4 fb ff ff       	callq  400ca0 <signal@plt>
  4010cc:	be af 1e 40 00       	mov    $0x401eaf,%esi
  4010d1:	bf 04 00 00 00       	mov    $0x4,%edi
  4010d6:	e8 c5 fb ff ff       	callq  400ca0 <signal@plt>
  4010db:	83 3d 46 38 20 00 00 	cmpl   $0x0,0x203846(%rip)        # 604928 <is_checker>
  4010e2:	74 20                	je     401104 <main+0x64>
  4010e4:	be fd 1e 40 00       	mov    $0x401efd,%esi
  4010e9:	bf 0e 00 00 00       	mov    $0xe,%edi
  4010ee:	e8 ad fb ff ff       	callq  400ca0 <signal@plt>
  4010f3:	bf 05 00 00 00       	mov    $0x5,%edi
  4010f8:	e8 63 fb ff ff       	callq  400c60 <alarm@plt>
  4010fd:	bd 92 2f 40 00       	mov    $0x402f92,%ebp
  401102:	eb 05                	jmp    401109 <main+0x69>
  401104:	bd 8d 2f 40 00       	mov    $0x402f8d,%ebp
  401109:	48 8b 05 d0 37 20 00 	mov    0x2037d0(%rip),%rax        # 6048e0 <stdin@@GLIBC_2.2.5>
  401110:	48 89 05 f9 37 20 00 	mov    %rax,0x2037f9(%rip)        # 604910 <infile>
  401117:	41 bd 00 00 00 00    	mov    $0x0,%r13d
  40111d:	41 be 00 00 00 00    	mov    $0x0,%r14d
  401123:	e9 b9 00 00 00       	jmpq   4011e1 <main+0x141>
  401128:	83 e8 61             	sub    $0x61,%eax
  40112b:	3c 10                	cmp    $0x10,%al
  40112d:	0f 87 93 00 00 00    	ja     4011c6 <main+0x126>
  401133:	0f b6 c0             	movzbl %al,%eax
  401136:	ff 24 c5 d8 2f 40 00 	jmpq   *0x402fd8(,%rax,8)
  40113d:	48 8b 3b             	mov    (%rbx),%rdi
  401140:	e8 8b fd ff ff       	callq  400ed0 <usage>
  401145:	be c5 32 40 00       	mov    $0x4032c5,%esi
  40114a:	48 8b 3d 97 37 20 00 	mov    0x203797(%rip),%rdi        # 6048e8 <optarg@@GLIBC_2.2.5>
  401151:	e8 0a fc ff ff       	callq  400d60 <fopen@plt>
  401156:	48 89 05 b3 37 20 00 	mov    %rax,0x2037b3(%rip)        # 604910 <infile>
  40115d:	48 85 c0             	test   %rax,%rax
  401160:	75 7f                	jne    4011e1 <main+0x141>
  401162:	48 8b 15 7f 37 20 00 	mov    0x20377f(%rip),%rdx        # 6048e8 <optarg@@GLIBC_2.2.5>
  401169:	be 9a 2f 40 00       	mov    $0x402f9a,%esi
  40116e:	48 8b 3d 7b 37 20 00 	mov    0x20377b(%rip),%rdi        # 6048f0 <stderr@@GLIBC_2.2.5>
  401175:	e8 46 fb ff ff       	callq  400cc0 <fprintf@plt>
  40117a:	b8 01 00 00 00       	mov    $0x1,%eax
  40117f:	e9 d6 00 00 00       	jmpq   40125a <main+0x1ba>
  401184:	ba 10 00 00 00       	mov    $0x10,%edx
  401189:	be 00 00 00 00       	mov    $0x0,%esi
  40118e:	48 8b 3d 53 37 20 00 	mov    0x203753(%rip),%rdi        # 6048e8 <optarg@@GLIBC_2.2.5>
  401195:	e8 e6 fb ff ff       	callq  400d80 <strtoul@plt>
  40119a:	41 89 c6             	mov    %eax,%r14d
  40119d:	eb 42                	jmp    4011e1 <main+0x141>
  40119f:	ba 0a 00 00 00       	mov    $0xa,%edx
  4011a4:	be 00 00 00 00       	mov    $0x0,%esi
  4011a9:	48 8b 3d 38 37 20 00 	mov    0x203738(%rip),%rdi        # 6048e8 <optarg@@GLIBC_2.2.5>
  4011b0:	e8 2b fb ff ff       	callq  400ce0 <strtol@plt>
  4011b5:	41 89 c5             	mov    %eax,%r13d
  4011b8:	eb 27                	jmp    4011e1 <main+0x141>
  4011ba:	c7 05 04 37 20 00 00 	movl   $0x0,0x203704(%rip)        # 6048c8 <notify>
  4011c1:	00 00 00 
  4011c4:	eb 1b                	jmp    4011e1 <main+0x141>
  4011c6:	40 0f be f6          	movsbl %sil,%esi
  4011ca:	bf b7 2f 40 00       	mov    $0x402fb7,%edi
  4011cf:	b8 00 00 00 00       	mov    $0x0,%eax
  4011d4:	e8 67 fa ff ff       	callq  400c40 <printf@plt>
  4011d9:	48 8b 3b             	mov    (%rbx),%rdi
  4011dc:	e8 ef fc ff ff       	callq  400ed0 <usage>
  4011e1:	48 89 ea             	mov    %rbp,%rdx
  4011e4:	48 89 de             	mov    %rbx,%rsi
  4011e7:	44 89 e7             	mov    %r12d,%edi
  4011ea:	e8 81 fb ff ff       	callq  400d70 <getopt@plt>
  4011ef:	89 c6                	mov    %eax,%esi
  4011f1:	3c ff                	cmp    $0xff,%al
  4011f3:	0f 85 2f ff ff ff    	jne    401128 <main+0x88>
  4011f9:	be 01 00 00 00       	mov    $0x1,%esi
  4011fe:	44 89 ef             	mov    %r13d,%edi
  401201:	e8 4a fd ff ff       	callq  400f50 <initialize_target>
  401206:	83 3d 1b 37 20 00 00 	cmpl   $0x0,0x20371b(%rip)        # 604928 <is_checker>
  40120d:	74 25                	je     401234 <main+0x194>
  40120f:	44 3b 35 0a 37 20 00 	cmp    0x20370a(%rip),%r14d        # 604920 <authkey>
  401216:	74 1c                	je     401234 <main+0x194>
  401218:	44 89 f6             	mov    %r14d,%esi
  40121b:	bf f0 2e 40 00       	mov    $0x402ef0,%edi
  401220:	b8 00 00 00 00       	mov    $0x0,%eax
  401225:	e8 16 fa ff ff       	callq  400c40 <printf@plt>
  40122a:	b8 00 00 00 00       	mov    $0x0,%eax
  40122f:	e8 e7 08 00 00       	callq  401b1b <check_fail>
  401234:	8b 35 ea 36 20 00    	mov    0x2036ea(%rip),%esi        # 604924 <cookie>
  40123a:	bf ca 2f 40 00       	mov    $0x402fca,%edi
  40123f:	b8 00 00 00 00       	mov    $0x0,%eax
  401244:	e8 f7 f9 ff ff       	callq  400c40 <printf@plt>
  401249:	48 8b 3d 70 36 20 00 	mov    0x203670(%rip),%rdi        # 6048c0 <buf_offset>
  401250:	e8 f6 0c 00 00       	callq  401f4b <launch>
  401255:	b8 00 00 00 00       	mov    $0x0,%eax
  40125a:	5b                   	pop    %rbx
  40125b:	5d                   	pop    %rbp
  40125c:	41 5c                	pop    %r12
  40125e:	41 5d                	pop    %r13
  401260:	41 5e                	pop    %r14
  401262:	c3                   	retq   
  401263:	90                   	nop

0000000000401264 <scramble>:
  401264:	b8 00 00 00 00       	mov    $0x0,%eax
  401269:	eb 11                	jmp    40127c <scramble+0x18>
  40126b:	69 c8 dd a7 00 00    	imul   $0xa7dd,%eax,%ecx
  401271:	01 f9                	add    %edi,%ecx
  401273:	89 c2                	mov    %eax,%edx
  401275:	89 4c 94 d0          	mov    %ecx,-0x30(%rsp,%rdx,4)
  401279:	83 c0 01             	add    $0x1,%eax
  40127c:	83 f8 09             	cmp    $0x9,%eax
  40127f:	76 ea                	jbe    40126b <scramble+0x7>
  401281:	8b 44 24 d8          	mov    -0x28(%rsp),%eax
  401285:	69 c0 6a 9a 00 00    	imul   $0x9a6a,%eax,%eax
  40128b:	89 44 24 d8          	mov    %eax,-0x28(%rsp)
  40128f:	8b 44 24 d8          	mov    -0x28(%rsp),%eax
  401293:	69 c0 6c 77 00 00    	imul   $0x776c,%eax,%eax
  401299:	89 44 24 d8          	mov    %eax,-0x28(%rsp)
  40129d:	8b 44 24 f4          	mov    -0xc(%rsp),%eax
  4012a1:	69 c0 30 9a 00 00    	imul   $0x9a30,%eax,%eax
  4012a7:	89 44 24 f4          	mov    %eax,-0xc(%rsp)
  4012ab:	8b 44 24 d4          	mov    -0x2c(%rsp),%eax
  4012af:	69 c0 c1 95 00 00    	imul   $0x95c1,%eax,%eax
  4012b5:	89 44 24 d4          	mov    %eax,-0x2c(%rsp)
  4012b9:	8b 44 24 f0          	mov    -0x10(%rsp),%eax
  4012bd:	69 c0 62 a0 00 00    	imul   $0xa062,%eax,%eax
  4012c3:	89 44 24 f0          	mov    %eax,-0x10(%rsp)
  4012c7:	8b 44 24 f0          	mov    -0x10(%rsp),%eax
  4012cb:	69 c0 04 73 00 00    	imul   $0x7304,%eax,%eax
  4012d1:	89 44 24 f0          	mov    %eax,-0x10(%rsp)
  4012d5:	8b 44 24 d0          	mov    -0x30(%rsp),%eax
  4012d9:	69 c0 1a b6 00 00    	imul   $0xb61a,%eax,%eax
  4012df:	89 44 24 d0          	mov    %eax,-0x30(%rsp)
  4012e3:	8b 44 24 e8          	mov    -0x18(%rsp),%eax
  4012e7:	69 c0 1c 86 00 00    	imul   $0x861c,%eax,%eax
  4012ed:	89 44 24 e8          	mov    %eax,-0x18(%rsp)
  4012f1:	8b 44 24 e8          	mov    -0x18(%rsp),%eax
  4012f5:	69 c0 24 66 00 00    	imul   $0x6624,%eax,%eax
  4012fb:	89 44 24 e8          	mov    %eax,-0x18(%rsp)
  4012ff:	8b 44 24 e4          	mov    -0x1c(%rsp),%eax
  401303:	69 c0 ce cd 00 00    	imul   $0xcdce,%eax,%eax
  401309:	89 44 24 e4          	mov    %eax,-0x1c(%rsp)
  40130d:	8b 44 24 dc          	mov    -0x24(%rsp),%eax
  401311:	69 c0 cf d6 00 00    	imul   $0xd6cf,%eax,%eax
  401317:	89 44 24 dc          	mov    %eax,-0x24(%rsp)
  40131b:	8b 44 24 d0          	mov    -0x30(%rsp),%eax
  40131f:	69 c0 63 f1 00 00    	imul   $0xf163,%eax,%eax
  401325:	89 44 24 d0          	mov    %eax,-0x30(%rsp)
  401329:	8b 44 24 dc          	mov    -0x24(%rsp),%eax
  40132d:	69 c0 4f f1 00 00    	imul   $0xf14f,%eax,%eax
  401333:	89 44 24 dc          	mov    %eax,-0x24(%rsp)
  401337:	8b 44 24 ec          	mov    -0x14(%rsp),%eax
  40133b:	69 c0 14 dc 00 00    	imul   $0xdc14,%eax,%eax
  401341:	89 44 24 ec          	mov    %eax,-0x14(%rsp)
  401345:	8b 44 24 ec          	mov    -0x14(%rsp),%eax
  401349:	69 c0 62 6a 00 00    	imul   $0x6a62,%eax,%eax
  40134f:	89 44 24 ec          	mov    %eax,-0x14(%rsp)
  401353:	8b 44 24 f0          	mov    -0x10(%rsp),%eax
  401357:	69 c0 0c d5 00 00    	imul   $0xd50c,%eax,%eax
  40135d:	89 44 24 f0          	mov    %eax,-0x10(%rsp)
  401361:	8b 44 24 d4          	mov    -0x2c(%rsp),%eax
  401365:	69 c0 37 29 00 00    	imul   $0x2937,%eax,%eax
  40136b:	89 44 24 d4          	mov    %eax,-0x2c(%rsp)
  40136f:	8b 44 24 d4          	mov    -0x2c(%rsp),%eax
  401373:	69 c0 bc d0 00 00    	imul   $0xd0bc,%eax,%eax
  401379:	89 44 24 d4          	mov    %eax,-0x2c(%rsp)
  40137d:	8b 44 24 e4          	mov    -0x1c(%rsp),%eax
  401381:	69 c0 12 49 00 00    	imul   $0x4912,%eax,%eax
  401387:	89 44 24 e4          	mov    %eax,-0x1c(%rsp)
  40138b:	8b 44 24 ec          	mov    -0x14(%rsp),%eax
  40138f:	69 c0 95 6a 00 00    	imul   $0x6a95,%eax,%eax
  401395:	89 44 24 ec          	mov    %eax,-0x14(%rsp)
  401399:	8b 44 24 e4          	mov    -0x1c(%rsp),%eax
  40139d:	69 c0 7d 23 00 00    	imul   $0x237d,%eax,%eax
  4013a3:	89 44 24 e4          	mov    %eax,-0x1c(%rsp)
  4013a7:	8b 44 24 dc          	mov    -0x24(%rsp),%eax
  4013ab:	69 c0 13 c1 00 00    	imul   $0xc113,%eax,%eax
  4013b1:	89 44 24 dc          	mov    %eax,-0x24(%rsp)
  4013b5:	8b 44 24 ec          	mov    -0x14(%rsp),%eax
  4013b9:	69 c0 7d f6 00 00    	imul   $0xf67d,%eax,%eax
  4013bf:	89 44 24 ec          	mov    %eax,-0x14(%rsp)
  4013c3:	8b 44 24 e4          	mov    -0x1c(%rsp),%eax
  4013c7:	69 c0 71 bc 00 00    	imul   $0xbc71,%eax,%eax
  4013cd:	89 44 24 e4          	mov    %eax,-0x1c(%rsp)
  4013d1:	8b 44 24 e4          	mov    -0x1c(%rsp),%eax
  4013d5:	69 c0 9d d8 00 00    	imul   $0xd89d,%eax,%eax
  4013db:	89 44 24 e4          	mov    %eax,-0x1c(%rsp)
  4013df:	8b 44 24 dc          	mov    -0x24(%rsp),%eax
  4013e3:	69 c0 ce 3e 00 00    	imul   $0x3ece,%eax,%eax
  4013e9:	89 44 24 dc          	mov    %eax,-0x24(%rsp)
  4013ed:	8b 44 24 dc          	mov    -0x24(%rsp),%eax
  4013f1:	69 c0 f4 3a 00 00    	imul   $0x3af4,%eax,%eax
  4013f7:	89 44 24 dc          	mov    %eax,-0x24(%rsp)
  4013fb:	8b 44 24 dc          	mov    -0x24(%rsp),%eax
  4013ff:	69 c0 d9 82 00 00    	imul   $0x82d9,%eax,%eax
  401405:	89 44 24 dc          	mov    %eax,-0x24(%rsp)
  401409:	8b 44 24 f4          	mov    -0xc(%rsp),%eax
  40140d:	69 c0 ab c7 00 00    	imul   $0xc7ab,%eax,%eax
  401413:	89 44 24 f4          	mov    %eax,-0xc(%rsp)
  401417:	8b 44 24 dc          	mov    -0x24(%rsp),%eax
  40141b:	69 c0 72 59 00 00    	imul   $0x5972,%eax,%eax
  401421:	89 44 24 dc          	mov    %eax,-0x24(%rsp)
  401425:	8b 44 24 ec          	mov    -0x14(%rsp),%eax
  401429:	69 c0 1c 18 00 00    	imul   $0x181c,%eax,%eax
  40142f:	89 44 24 ec          	mov    %eax,-0x14(%rsp)
  401433:	8b 44 24 f0          	mov    -0x10(%rsp),%eax
  401437:	69 c0 d9 36 00 00    	imul   $0x36d9,%eax,%eax
  40143d:	89 44 24 f0          	mov    %eax,-0x10(%rsp)
  401441:	8b 44 24 dc          	mov    -0x24(%rsp),%eax
  401445:	69 c0 f8 7a 00 00    	imul   $0x7af8,%eax,%eax
  40144b:	89 44 24 dc          	mov    %eax,-0x24(%rsp)
  40144f:	8b 44 24 d0          	mov    -0x30(%rsp),%eax
  401453:	69 c0 bb 04 00 00    	imul   $0x4bb,%eax,%eax
  401459:	89 44 24 d0          	mov    %eax,-0x30(%rsp)
  40145d:	8b 44 24 e0          	mov    -0x20(%rsp),%eax
  401461:	69 c0 12 6e 00 00    	imul   $0x6e12,%eax,%eax
  401467:	89 44 24 e0          	mov    %eax,-0x20(%rsp)
  40146b:	8b 44 24 dc          	mov    -0x24(%rsp),%eax
  40146f:	69 c0 7f ad 00 00    	imul   $0xad7f,%eax,%eax
  401475:	89 44 24 dc          	mov    %eax,-0x24(%rsp)
  401479:	8b 44 24 e0          	mov    -0x20(%rsp),%eax
  40147d:	69 c0 e9 4c 00 00    	imul   $0x4ce9,%eax,%eax
  401483:	89 44 24 e0          	mov    %eax,-0x20(%rsp)
  401487:	8b 44 24 f0          	mov    -0x10(%rsp),%eax
  40148b:	69 c0 26 6b 00 00    	imul   $0x6b26,%eax,%eax
  401491:	89 44 24 f0          	mov    %eax,-0x10(%rsp)
  401495:	8b 44 24 f4          	mov    -0xc(%rsp),%eax
  401499:	69 c0 c1 b5 00 00    	imul   $0xb5c1,%eax,%eax
  40149f:	89 44 24 f4          	mov    %eax,-0xc(%rsp)
  4014a3:	8b 44 24 ec          	mov    -0x14(%rsp),%eax
  4014a7:	69 c0 07 a0 00 00    	imul   $0xa007,%eax,%eax
  4014ad:	89 44 24 ec          	mov    %eax,-0x14(%rsp)
  4014b1:	8b 44 24 e8          	mov    -0x18(%rsp),%eax
  4014b5:	69 c0 d6 b1 00 00    	imul   $0xb1d6,%eax,%eax
  4014bb:	89 44 24 e8          	mov    %eax,-0x18(%rsp)
  4014bf:	8b 44 24 e0          	mov    -0x20(%rsp),%eax
  4014c3:	69 c0 cc 3d 00 00    	imul   $0x3dcc,%eax,%eax
  4014c9:	89 44 24 e0          	mov    %eax,-0x20(%rsp)
  4014cd:	8b 44 24 f4          	mov    -0xc(%rsp),%eax
  4014d1:	69 c0 07 0f 00 00    	imul   $0xf07,%eax,%eax
  4014d7:	89 44 24 f4          	mov    %eax,-0xc(%rsp)
  4014db:	8b 44 24 f0          	mov    -0x10(%rsp),%eax
  4014df:	69 c0 0e 19 00 00    	imul   $0x190e,%eax,%eax
  4014e5:	89 44 24 f0          	mov    %eax,-0x10(%rsp)
  4014e9:	8b 44 24 d8          	mov    -0x28(%rsp),%eax
  4014ed:	69 c0 92 1f 00 00    	imul   $0x1f92,%eax,%eax
  4014f3:	89 44 24 d8          	mov    %eax,-0x28(%rsp)
  4014f7:	8b 44 24 e8          	mov    -0x18(%rsp),%eax
  4014fb:	69 c0 bf 08 00 00    	imul   $0x8bf,%eax,%eax
  401501:	89 44 24 e8          	mov    %eax,-0x18(%rsp)
  401505:	8b 44 24 e8          	mov    -0x18(%rsp),%eax
  401509:	69 c0 ff a0 00 00    	imul   $0xa0ff,%eax,%eax
  40150f:	89 44 24 e8          	mov    %eax,-0x18(%rsp)
  401513:	8b 44 24 f4          	mov    -0xc(%rsp),%eax
  401517:	69 c0 02 79 00 00    	imul   $0x7902,%eax,%eax
  40151d:	89 44 24 f4          	mov    %eax,-0xc(%rsp)
  401521:	8b 44 24 e8          	mov    -0x18(%rsp),%eax
  401525:	69 c0 2d 47 00 00    	imul   $0x472d,%eax,%eax
  40152b:	89 44 24 e8          	mov    %eax,-0x18(%rsp)
  40152f:	8b 44 24 d4          	mov    -0x2c(%rsp),%eax
  401533:	69 c0 02 e0 00 00    	imul   $0xe002,%eax,%eax
  401539:	89 44 24 d4          	mov    %eax,-0x2c(%rsp)
  40153d:	8b 44 24 f4          	mov    -0xc(%rsp),%eax
  401541:	69 c0 0e ed 00 00    	imul   $0xed0e,%eax,%eax
  401547:	89 44 24 f4          	mov    %eax,-0xc(%rsp)
  40154b:	8b 44 24 d8          	mov    -0x28(%rsp),%eax
  40154f:	69 c0 ce 46 00 00    	imul   $0x46ce,%eax,%eax
  401555:	89 44 24 d8          	mov    %eax,-0x28(%rsp)
  401559:	8b 44 24 e0          	mov    -0x20(%rsp),%eax
  40155d:	69 c0 14 fc 00 00    	imul   $0xfc14,%eax,%eax
  401563:	89 44 24 e0          	mov    %eax,-0x20(%rsp)
  401567:	8b 44 24 f4          	mov    -0xc(%rsp),%eax
  40156b:	69 c0 5e 7d 00 00    	imul   $0x7d5e,%eax,%eax
  401571:	89 44 24 f4          	mov    %eax,-0xc(%rsp)
  401575:	8b 44 24 f0          	mov    -0x10(%rsp),%eax
  401579:	69 c0 8b d9 00 00    	imul   $0xd98b,%eax,%eax
  40157f:	89 44 24 f0          	mov    %eax,-0x10(%rsp)
  401583:	8b 44 24 ec          	mov    -0x14(%rsp),%eax
  401587:	69 c0 34 40 00 00    	imul   $0x4034,%eax,%eax
  40158d:	89 44 24 ec          	mov    %eax,-0x14(%rsp)
  401591:	8b 44 24 d0          	mov    -0x30(%rsp),%eax
  401595:	69 c0 3c fc 00 00    	imul   $0xfc3c,%eax,%eax
  40159b:	89 44 24 d0          	mov    %eax,-0x30(%rsp)
  40159f:	8b 44 24 ec          	mov    -0x14(%rsp),%eax
  4015a3:	69 c0 2c 78 00 00    	imul   $0x782c,%eax,%eax
  4015a9:	89 44 24 ec          	mov    %eax,-0x14(%rsp)
  4015ad:	8b 44 24 d8          	mov    -0x28(%rsp),%eax
  4015b1:	69 c0 a5 3e 00 00    	imul   $0x3ea5,%eax,%eax
  4015b7:	89 44 24 d8          	mov    %eax,-0x28(%rsp)
  4015bb:	8b 44 24 ec          	mov    -0x14(%rsp),%eax
  4015bf:	69 c0 f6 e1 00 00    	imul   $0xe1f6,%eax,%eax
  4015c5:	89 44 24 ec          	mov    %eax,-0x14(%rsp)
  4015c9:	8b 44 24 d4          	mov    -0x2c(%rsp),%eax
  4015cd:	69 c0 ba 03 00 00    	imul   $0x3ba,%eax,%eax
  4015d3:	89 44 24 d4          	mov    %eax,-0x2c(%rsp)
  4015d7:	8b 44 24 e8          	mov    -0x18(%rsp),%eax
  4015db:	69 c0 e6 95 00 00    	imul   $0x95e6,%eax,%eax
  4015e1:	89 44 24 e8          	mov    %eax,-0x18(%rsp)
  4015e5:	8b 44 24 d0          	mov    -0x30(%rsp),%eax
  4015e9:	69 c0 4e 2a 00 00    	imul   $0x2a4e,%eax,%eax
  4015ef:	89 44 24 d0          	mov    %eax,-0x30(%rsp)
  4015f3:	8b 44 24 d4          	mov    -0x2c(%rsp),%eax
  4015f7:	69 c0 b1 c0 00 00    	imul   $0xc0b1,%eax,%eax
  4015fd:	89 44 24 d4          	mov    %eax,-0x2c(%rsp)
  401601:	8b 44 24 ec          	mov    -0x14(%rsp),%eax
  401605:	69 c0 a6 8c 00 00    	imul   $0x8ca6,%eax,%eax
  40160b:	89 44 24 ec          	mov    %eax,-0x14(%rsp)
  40160f:	8b 44 24 ec          	mov    -0x14(%rsp),%eax
  401613:	69 c0 bb 26 00 00    	imul   $0x26bb,%eax,%eax
  401619:	89 44 24 ec          	mov    %eax,-0x14(%rsp)
  40161d:	8b 44 24 d4          	mov    -0x2c(%rsp),%eax
  401621:	69 c0 35 2e 00 00    	imul   $0x2e35,%eax,%eax
  401627:	89 44 24 d4          	mov    %eax,-0x2c(%rsp)
  40162b:	8b 44 24 e4          	mov    -0x1c(%rsp),%eax
  40162f:	69 c0 ad b3 00 00    	imul   $0xb3ad,%eax,%eax
  401635:	89 44 24 e4          	mov    %eax,-0x1c(%rsp)
  401639:	8b 44 24 dc          	mov    -0x24(%rsp),%eax
  40163d:	69 c0 7e 1f 00 00    	imul   $0x1f7e,%eax,%eax
  401643:	89 44 24 dc          	mov    %eax,-0x24(%rsp)
  401647:	8b 44 24 d4          	mov    -0x2c(%rsp),%eax
  40164b:	69 c0 1e dc 00 00    	imul   $0xdc1e,%eax,%eax
  401651:	89 44 24 d4          	mov    %eax,-0x2c(%rsp)
  401655:	8b 44 24 dc          	mov    -0x24(%rsp),%eax
  401659:	69 c0 71 4e 00 00    	imul   $0x4e71,%eax,%eax
  40165f:	89 44 24 dc          	mov    %eax,-0x24(%rsp)
  401663:	8b 44 24 ec          	mov    -0x14(%rsp),%eax
  401667:	69 c0 6b 84 00 00    	imul   $0x846b,%eax,%eax
  40166d:	89 44 24 ec          	mov    %eax,-0x14(%rsp)
  401671:	8b 44 24 e4          	mov    -0x1c(%rsp),%eax
  401675:	69 c0 53 9a 00 00    	imul   $0x9a53,%eax,%eax
  40167b:	89 44 24 e4          	mov    %eax,-0x1c(%rsp)
  40167f:	8b 44 24 e4          	mov    -0x1c(%rsp),%eax
  401683:	69 c0 f1 55 00 00    	imul   $0x55f1,%eax,%eax
  401689:	89 44 24 e4          	mov    %eax,-0x1c(%rsp)
  40168d:	8b 44 24 dc          	mov    -0x24(%rsp),%eax
  401691:	69 c0 d1 8d 00 00    	imul   $0x8dd1,%eax,%eax
  401697:	89 44 24 dc          	mov    %eax,-0x24(%rsp)
  40169b:	8b 44 24 dc          	mov    -0x24(%rsp),%eax
  40169f:	69 c0 30 37 00 00    	imul   $0x3730,%eax,%eax
  4016a5:	89 44 24 dc          	mov    %eax,-0x24(%rsp)
  4016a9:	8b 44 24 d0          	mov    -0x30(%rsp),%eax
  4016ad:	69 c0 9c 22 00 00    	imul   $0x229c,%eax,%eax
  4016b3:	89 44 24 d0          	mov    %eax,-0x30(%rsp)
  4016b7:	8b 44 24 e0          	mov    -0x20(%rsp),%eax
  4016bb:	69 c0 45 36 00 00    	imul   $0x3645,%eax,%eax
  4016c1:	89 44 24 e0          	mov    %eax,-0x20(%rsp)
  4016c5:	8b 44 24 e4          	mov    -0x1c(%rsp),%eax
  4016c9:	69 c0 ff db 00 00    	imul   $0xdbff,%eax,%eax
  4016cf:	89 44 24 e4          	mov    %eax,-0x1c(%rsp)
  4016d3:	8b 44 24 ec          	mov    -0x14(%rsp),%eax
  4016d7:	69 c0 66 be 00 00    	imul   $0xbe66,%eax,%eax
  4016dd:	89 44 24 ec          	mov    %eax,-0x14(%rsp)
  4016e1:	8b 44 24 e4          	mov    -0x1c(%rsp),%eax
  4016e5:	69 c0 aa 97 00 00    	imul   $0x97aa,%eax,%eax
  4016eb:	89 44 24 e4          	mov    %eax,-0x1c(%rsp)
  4016ef:	8b 44 24 dc          	mov    -0x24(%rsp),%eax
  4016f3:	69 c0 5a e2 00 00    	imul   $0xe25a,%eax,%eax
  4016f9:	89 44 24 dc          	mov    %eax,-0x24(%rsp)
  4016fd:	8b 44 24 f4          	mov    -0xc(%rsp),%eax
  401701:	69 c0 aa 52 00 00    	imul   $0x52aa,%eax,%eax
  401707:	89 44 24 f4          	mov    %eax,-0xc(%rsp)
  40170b:	8b 44 24 e8          	mov    -0x18(%rsp),%eax
  40170f:	69 c0 28 f0 00 00    	imul   $0xf028,%eax,%eax
  401715:	89 44 24 e8          	mov    %eax,-0x18(%rsp)
  401719:	8b 44 24 e4          	mov    -0x1c(%rsp),%eax
  40171d:	69 c0 13 c7 00 00    	imul   $0xc713,%eax,%eax
  401723:	89 44 24 e4          	mov    %eax,-0x1c(%rsp)
  401727:	8b 44 24 e8          	mov    -0x18(%rsp),%eax
  40172b:	69 c0 32 6b 00 00    	imul   $0x6b32,%eax,%eax
  401731:	89 44 24 e8          	mov    %eax,-0x18(%rsp)
  401735:	8b 44 24 d4          	mov    -0x2c(%rsp),%eax
  401739:	69 c0 9a e8 00 00    	imul   $0xe89a,%eax,%eax
  40173f:	89 44 24 d4          	mov    %eax,-0x2c(%rsp)
  401743:	8b 44 24 e4          	mov    -0x1c(%rsp),%eax
  401747:	69 c0 32 60 00 00    	imul   $0x6032,%eax,%eax
  40174d:	89 44 24 e4          	mov    %eax,-0x1c(%rsp)
  401751:	8b 44 24 d4          	mov    -0x2c(%rsp),%eax
  401755:	69 c0 34 ec 00 00    	imul   $0xec34,%eax,%eax
  40175b:	89 44 24 d4          	mov    %eax,-0x2c(%rsp)
  40175f:	8b 44 24 e4          	mov    -0x1c(%rsp),%eax
  401763:	69 c0 e6 5b 00 00    	imul   $0x5be6,%eax,%eax
  401769:	89 44 24 e4          	mov    %eax,-0x1c(%rsp)
  40176d:	8b 44 24 ec          	mov    -0x14(%rsp),%eax
  401771:	69 c0 0a ee 00 00    	imul   $0xee0a,%eax,%eax
  401777:	89 44 24 ec          	mov    %eax,-0x14(%rsp)
  40177b:	8b 44 24 d0          	mov    -0x30(%rsp),%eax
  40177f:	69 c0 90 0b 00 00    	imul   $0xb90,%eax,%eax
  401785:	89 44 24 d0          	mov    %eax,-0x30(%rsp)
  401789:	8b 44 24 d0          	mov    -0x30(%rsp),%eax
  40178d:	69 c0 2d 60 00 00    	imul   $0x602d,%eax,%eax
  401793:	89 44 24 d0          	mov    %eax,-0x30(%rsp)
  401797:	8b 44 24 f0          	mov    -0x10(%rsp),%eax
  40179b:	69 c0 91 5d 00 00    	imul   $0x5d91,%eax,%eax
  4017a1:	89 44 24 f0          	mov    %eax,-0x10(%rsp)
  4017a5:	8b 44 24 e4          	mov    -0x1c(%rsp),%eax
  4017a9:	69 c0 cd 38 00 00    	imul   $0x38cd,%eax,%eax
  4017af:	89 44 24 e4          	mov    %eax,-0x1c(%rsp)
  4017b3:	8b 44 24 d4          	mov    -0x2c(%rsp),%eax
  4017b7:	69 c0 d2 a4 00 00    	imul   $0xa4d2,%eax,%eax
  4017bd:	89 44 24 d4          	mov    %eax,-0x2c(%rsp)
  4017c1:	ba 00 00 00 00       	mov    $0x0,%edx
  4017c6:	b8 00 00 00 00       	mov    $0x0,%eax
  4017cb:	eb 0b                	jmp    4017d8 <scramble+0x574>
  4017cd:	89 d1                	mov    %edx,%ecx
  4017cf:	8b 4c 8c d0          	mov    -0x30(%rsp,%rcx,4),%ecx
  4017d3:	01 c8                	add    %ecx,%eax
  4017d5:	83 c2 01             	add    $0x1,%edx
  4017d8:	83 fa 09             	cmp    $0x9,%edx
  4017db:	76 f0                	jbe    4017cd <scramble+0x569>
  4017dd:	f3 c3                	repz retq 
  4017df:	90                   	nop

00000000004017e0 <getbuf>:
  4017e0:	48 83 ec 28          	sub    $0x28,%rsp
  4017e4:	48 89 e7             	mov    %rsp,%rdi
  4017e7:	e8 5e 03 00 00       	callq  401b4a <Gets>
  4017ec:	b8 01 00 00 00       	mov    $0x1,%eax
  4017f1:	48 83 c4 28          	add    $0x28,%rsp
  4017f5:	c3                   	retq   
  4017f6:	66 90                	xchg   %ax,%ax

00000000004017f8 <touch1>:
  4017f8:	48 83 ec 08          	sub    $0x8,%rsp
  4017fc:	c7 05 16 31 20 00 01 	movl   $0x1,0x203116(%rip)        # 60491c <vlevel>
  401803:	00 00 00 
  401806:	bf 18 31 40 00       	mov    $0x403118,%edi
  40180b:	e8 00 f4 ff ff       	callq  400c10 <puts@plt>
  401810:	bf 01 00 00 00       	mov    $0x1,%edi
  401815:	e8 1f 05 00 00       	callq  401d39 <validate>
  40181a:	bf 00 00 00 00       	mov    $0x0,%edi
  40181f:	e8 8c f5 ff ff       	callq  400db0 <exit@plt>

0000000000401824 <touch2>:
  401824:	48 83 ec 08          	sub    $0x8,%rsp
  401828:	89 fe                	mov    %edi,%esi
  40182a:	c7 05 e8 30 20 00 02 	movl   $0x2,0x2030e8(%rip)        # 60491c <vlevel>
  401831:	00 00 00 
  401834:	3b 3d ea 30 20 00    	cmp    0x2030ea(%rip),%edi        # 604924 <cookie>
  40183a:	75 1b                	jne    401857 <touch2+0x33>
  40183c:	bf 40 31 40 00       	mov    $0x403140,%edi
  401841:	b8 00 00 00 00       	mov    $0x0,%eax
  401846:	e8 f5 f3 ff ff       	callq  400c40 <printf@plt>
  40184b:	bf 02 00 00 00       	mov    $0x2,%edi
  401850:	e8 e4 04 00 00       	callq  401d39 <validate>
  401855:	eb 19                	jmp    401870 <touch2+0x4c>
  401857:	bf 68 31 40 00       	mov    $0x403168,%edi
  40185c:	b8 00 00 00 00       	mov    $0x0,%eax
  401861:	e8 da f3 ff ff       	callq  400c40 <printf@plt>
  401866:	bf 02 00 00 00       	mov    $0x2,%edi
  40186b:	e8 7b 05 00 00       	callq  401deb <fail>
  401870:	bf 00 00 00 00       	mov    $0x0,%edi
  401875:	e8 36 f5 ff ff       	callq  400db0 <exit@plt>

000000000040187a <hexmatch>:
  40187a:	41 54                	push   %r12
  40187c:	55                   	push   %rbp
  40187d:	53                   	push   %rbx
  40187e:	48 83 ec 70          	sub    $0x70,%rsp
  401882:	41 89 fc             	mov    %edi,%r12d
  401885:	48 89 f5             	mov    %rsi,%rbp
  401888:	e8 83 f4 ff ff       	callq  400d10 <random@plt>
  40188d:	48 89 c1             	mov    %rax,%rcx
  401890:	48 ba 0b d7 a3 70 3d 	movabs $0xa3d70a3d70a3d70b,%rdx
  401897:	0a d7 a3 
  40189a:	48 f7 ea             	imul   %rdx
  40189d:	48 8d 04 0a          	lea    (%rdx,%rcx,1),%rax
  4018a1:	48 c1 f8 06          	sar    $0x6,%rax
  4018a5:	48 89 ce             	mov    %rcx,%rsi
  4018a8:	48 c1 fe 3f          	sar    $0x3f,%rsi
  4018ac:	48 29 f0             	sub    %rsi,%rax
  4018af:	48 8d 04 80          	lea    (%rax,%rax,4),%rax
  4018b3:	48 8d 04 80          	lea    (%rax,%rax,4),%rax
  4018b7:	48 c1 e0 02          	shl    $0x2,%rax
  4018bb:	48 29 c1             	sub    %rax,%rcx
  4018be:	48 8d 1c 0c          	lea    (%rsp,%rcx,1),%rbx
  4018c2:	44 89 e2             	mov    %r12d,%edx
  4018c5:	be 35 31 40 00       	mov    $0x403135,%esi
  4018ca:	48 89 df             	mov    %rbx,%rdi
  4018cd:	b8 00 00 00 00       	mov    $0x0,%eax
  4018d2:	e8 c9 f4 ff ff       	callq  400da0 <sprintf@plt>
  4018d7:	ba 09 00 00 00       	mov    $0x9,%edx
  4018dc:	48 89 de             	mov    %rbx,%rsi
  4018df:	48 89 ef             	mov    %rbp,%rdi
  4018e2:	e8 09 f3 ff ff       	callq  400bf0 <strncmp@plt>
  4018e7:	85 c0                	test   %eax,%eax
  4018e9:	0f 94 c0             	sete   %al
  4018ec:	0f b6 c0             	movzbl %al,%eax
  4018ef:	48 83 c4 70          	add    $0x70,%rsp
  4018f3:	5b                   	pop    %rbx
  4018f4:	5d                   	pop    %rbp
  4018f5:	41 5c                	pop    %r12
  4018f7:	c3                   	retq   

00000000004018f8 <touch3>:
  4018f8:	53                   	push   %rbx
  4018f9:	48 89 fb             	mov    %rdi,%rbx
  4018fc:	c7 05 16 30 20 00 03 	movl   $0x3,0x203016(%rip)        # 60491c <vlevel>
  401903:	00 00 00 
  401906:	48 89 fe             	mov    %rdi,%rsi
  401909:	8b 3d 15 30 20 00    	mov    0x203015(%rip),%edi        # 604924 <cookie>
  40190f:	e8 66 ff ff ff       	callq  40187a <hexmatch>
  401914:	85 c0                	test   %eax,%eax
  401916:	74 1e                	je     401936 <touch3+0x3e>
  401918:	48 89 de             	mov    %rbx,%rsi
  40191b:	bf 90 31 40 00       	mov    $0x403190,%edi
  401920:	b8 00 00 00 00       	mov    $0x0,%eax
  401925:	e8 16 f3 ff ff       	callq  400c40 <printf@plt>
  40192a:	bf 03 00 00 00       	mov    $0x3,%edi
  40192f:	e8 05 04 00 00       	callq  401d39 <validate>
  401934:	eb 1c                	jmp    401952 <touch3+0x5a>
  401936:	48 89 de             	mov    %rbx,%rsi
  401939:	bf b8 31 40 00       	mov    $0x4031b8,%edi
  40193e:	b8 00 00 00 00       	mov    $0x0,%eax
  401943:	e8 f8 f2 ff ff       	callq  400c40 <printf@plt>
  401948:	bf 03 00 00 00       	mov    $0x3,%edi
  40194d:	e8 99 04 00 00       	callq  401deb <fail>
  401952:	bf 00 00 00 00       	mov    $0x0,%edi
  401957:	e8 54 f4 ff ff       	callq  400db0 <exit@plt>

000000000040195c <test>:
  40195c:	48 83 ec 08          	sub    $0x8,%rsp
  401960:	b8 00 00 00 00       	mov    $0x0,%eax
  401965:	e8 76 fe ff ff       	callq  4017e0 <getbuf>
  40196a:	89 c6                	mov    %eax,%esi
  40196c:	bf e0 31 40 00       	mov    $0x4031e0,%edi
  401971:	b8 00 00 00 00       	mov    $0x0,%eax
  401976:	e8 c5 f2 ff ff       	callq  400c40 <printf@plt>
  40197b:	48 83 c4 08          	add    $0x8,%rsp
  40197f:	c3                   	retq   

0000000000401980 <start_farm>:
  401980:	b8 01 00 00 00       	mov    $0x1,%eax
  401985:	c3                   	retq   

0000000000401986 <getval_379>:
  401986:	b8 1e 58 90 90       	mov    $0x9090581e,%eax
  40198b:	c3                   	retq   

000000000040198c <addval_475>:
  40198c:	8d 87 37 48 89 c7    	lea    -0x3876b7c9(%rdi),%eax
  401992:	c3                   	retq   

0000000000401993 <setval_431>:
  401993:	c7 07 48 89 c7 c3    	movl   $0xc3c78948,(%rdi)
  401999:	c3                   	retq   

000000000040199a <getval_398>:
  40199a:	b8 48 89 c7 92       	mov    $0x92c78948,%eax
  40199f:	c3                   	retq   

00000000004019a0 <addval_243>:
  4019a0:	8d 87 58 90 c3 1b    	lea    0x1bc39058(%rdi),%eax
  4019a6:	c3                   	retq   

00000000004019a7 <addval_289>:
  4019a7:	8d 87 e9 58 94 90    	lea    -0x6f6ba717(%rdi),%eax
  4019ad:	c3                   	retq   

00000000004019ae <addval_467>:
  4019ae:	8d 87 a4 48 8d c7    	lea    -0x3872b75c(%rdi),%eax
  4019b4:	c3                   	retq   

00000000004019b5 <getval_372>:
  4019b5:	b8 0c d8 c3 6b       	mov    $0x6bc3d80c,%eax
  4019ba:	c3                   	retq   

00000000004019bb <mid_farm>:
  4019bb:	b8 01 00 00 00       	mov    $0x1,%eax
  4019c0:	c3                   	retq   

00000000004019c1 <add_xy>:
  4019c1:	48 8d 04 37          	lea    (%rdi,%rsi,1),%rax
  4019c5:	c3                   	retq   

00000000004019c6 <addval_165>:
  4019c6:	8d 87 48 89 e0 c2    	lea    -0x3d1f76b8(%rdi),%eax
  4019cc:	c3                   	retq   

00000000004019cd <addval_390>:
  4019cd:	8d 87 82 89 c2 c3    	lea    -0x3c3d767e(%rdi),%eax
  4019d3:	c3                   	retq   

00000000004019d4 <addval_141>:
  4019d4:	8d 87 48 89 e0 90    	lea    -0x6f1f76b8(%rdi),%eax
  4019da:	c3                   	retq   

00000000004019db <setval_405>:
  4019db:	c7 07 8d ce 08 c0    	movl   $0xc008ce8d,(%rdi)
  4019e1:	c3                   	retq   

00000000004019e2 <setval_364>:
  4019e2:	c7 07 89 c2 94 d2    	movl   $0xd294c289,(%rdi)
  4019e8:	c3                   	retq   

00000000004019e9 <getval_423>:
  4019e9:	b8 2c 81 c2 c3       	mov    $0xc3c2812c,%eax
  4019ee:	c3                   	retq   

00000000004019ef <setval_124>:
  4019ef:	c7 07 c8 89 e0 90    	movl   $0x90e089c8,(%rdi)
  4019f5:	c3                   	retq   

00000000004019f6 <addval_292>:
  4019f6:	8d 87 89 ce 60 d2    	lea    -0x2d9f3177(%rdi),%eax
  4019fc:	c3                   	retq   

00000000004019fd <setval_499>:
  4019fd:	c7 07 89 c2 90 c3    	movl   $0xc390c289,(%rdi)
  401a03:	c3                   	retq   

0000000000401a04 <addval_193>:
  401a04:	8d 87 88 c2 84 c0    	lea    -0x3f7b3d78(%rdi),%eax
  401a0a:	c3                   	retq   

0000000000401a0b <setval_239>:
  401a0b:	c7 07 8b d1 20 d2    	movl   $0xd220d18b,(%rdi)
  401a11:	c3                   	retq   

0000000000401a12 <setval_347>:
  401a12:	c7 07 88 d1 c3 e3    	movl   $0xe3c3d188,(%rdi)
  401a18:	c3                   	retq   

0000000000401a19 <addval_432>:
  401a19:	8d 87 48 89 e0 c1    	lea    -0x3e1f76b8(%rdi),%eax
  401a1f:	c3                   	retq   

0000000000401a20 <addval_293>:
  401a20:	8d 87 89 d1 38 c0    	lea    -0x3fc72e77(%rdi),%eax
  401a26:	c3                   	retq   

0000000000401a27 <addval_302>:
  401a27:	8d 87 89 d1 60 c9    	lea    -0x369f2e77(%rdi),%eax
  401a2d:	c3                   	retq   

0000000000401a2e <addval_376>:
  401a2e:	8d 87 48 89 e0 91    	lea    -0x6e1f76b8(%rdi),%eax
  401a34:	c3                   	retq   

0000000000401a35 <addval_286>:
  401a35:	8d 87 7a de 89 ce    	lea    -0x31762186(%rdi),%eax
  401a3b:	c3                   	retq   

0000000000401a3c <getval_403>:
  401a3c:	b8 89 c2 c2 5e       	mov    $0x5ec2c289,%eax
  401a41:	c3                   	retq   

0000000000401a42 <setval_440>:
  401a42:	c7 07 f5 48 99 e0    	movl   $0xe09948f5,(%rdi)
  401a48:	c3                   	retq   

0000000000401a49 <setval_315>:
  401a49:	c7 07 09 ce 90 c3    	movl   $0xc390ce09,(%rdi)
  401a4f:	c3                   	retq   

0000000000401a50 <setval_414>:
  401a50:	c7 07 8d ce 08 c0    	movl   $0xc008ce8d,(%rdi)
  401a56:	c3                   	retq   

0000000000401a57 <setval_450>:
  401a57:	c7 07 8d d1 20 db    	movl   $0xdb20d18d,(%rdi)
  401a5d:	c3                   	retq   

0000000000401a5e <setval_194>:
  401a5e:	c7 07 89 ce 91 90    	movl   $0x9091ce89,(%rdi)
  401a64:	c3                   	retq   

0000000000401a65 <setval_191>:
  401a65:	c7 07 89 ce 18 db    	movl   $0xdb18ce89,(%rdi)
  401a6b:	c3                   	retq   

0000000000401a6c <setval_131>:
  401a6c:	c7 07 89 ce 90 90    	movl   $0x9090ce89,(%rdi)
  401a72:	c3                   	retq   

0000000000401a73 <getval_185>:
  401a73:	b8 89 c2 c2 52       	mov    $0x52c2c289,%eax
  401a78:	c3                   	retq   

0000000000401a79 <addval_336>:
  401a79:	8d 87 89 d1 92 c3    	lea    -0x3c6d2e77(%rdi),%eax
  401a7f:	c3                   	retq   

0000000000401a80 <getval_433>:
  401a80:	b8 a9 48 89 e0       	mov    $0xe08948a9,%eax
  401a85:	c3                   	retq   

0000000000401a86 <setval_455>:
  401a86:	c7 07 89 c2 78 d2    	movl   $0xd278c289,(%rdi)
  401a8c:	c3                   	retq   

0000000000401a8d <setval_155>:
  401a8d:	c7 07 89 d1 08 db    	movl   $0xdb08d189,(%rdi)
  401a93:	c3                   	retq   

0000000000401a94 <getval_180>:
  401a94:	b8 48 89 e0 c2       	mov    $0xc2e08948,%eax
  401a99:	c3                   	retq   

0000000000401a9a <getval_149>:
  401a9a:	b8 99 d1 08 c9       	mov    $0xc908d199,%eax
  401a9f:	c3                   	retq   

0000000000401aa0 <end_farm>:
  401aa0:	b8 01 00 00 00       	mov    $0x1,%eax
  401aa5:	c3                   	retq   
  401aa6:	66 2e 0f 1f 84 00 00 	nopw   %cs:0x0(%rax,%rax,1)
  401aad:	00 00 00 

0000000000401ab0 <save_char>:
  401ab0:	8b 05 8e 3a 20 00    	mov    0x203a8e(%rip),%eax        # 605544 <gets_cnt>
  401ab6:	3d ff 03 00 00       	cmp    $0x3ff,%eax
  401abb:	7f 49                	jg     401b06 <save_char+0x56>
  401abd:	8d 14 40             	lea    (%rax,%rax,2),%edx
  401ac0:	89 f9                	mov    %edi,%ecx
  401ac2:	c1 e9 04             	shr    $0x4,%ecx
  401ac5:	48 63 c9             	movslq %ecx,%rcx
  401ac8:	0f b6 b1 00 35 40 00 	movzbl 0x403500(%rcx),%esi
  401acf:	48 63 ca             	movslq %edx,%rcx
  401ad2:	40 88 b1 40 49 60 00 	mov    %sil,0x604940(%rcx)
  401ad9:	8d 4a 01             	lea    0x1(%rdx),%ecx
  401adc:	83 e7 0f             	and    $0xf,%edi
  401adf:	0f b6 b7 00 35 40 00 	movzbl 0x403500(%rdi),%esi
  401ae6:	48 63 c9             	movslq %ecx,%rcx
  401ae9:	40 88 b1 40 49 60 00 	mov    %sil,0x604940(%rcx)
  401af0:	83 c2 02             	add    $0x2,%edx
  401af3:	48 63 d2             	movslq %edx,%rdx
  401af6:	c6 82 40 49 60 00 20 	movb   $0x20,0x604940(%rdx)
  401afd:	83 c0 01             	add    $0x1,%eax
  401b00:	89 05 3e 3a 20 00    	mov    %eax,0x203a3e(%rip)        # 605544 <gets_cnt>
  401b06:	f3 c3                	repz retq 

0000000000401b08 <save_term>:
  401b08:	8b 05 36 3a 20 00    	mov    0x203a36(%rip),%eax        # 605544 <gets_cnt>
  401b0e:	8d 04 40             	lea    (%rax,%rax,2),%eax
  401b11:	48 98                	cltq   
  401b13:	c6 80 40 49 60 00 00 	movb   $0x0,0x604940(%rax)
  401b1a:	c3                   	retq   

0000000000401b1b <check_fail>:
  401b1b:	48 83 ec 08          	sub    $0x8,%rsp
  401b1f:	0f be 35 22 3a 20 00 	movsbl 0x203a22(%rip),%esi        # 605548 <target_prefix>
  401b26:	b9 40 49 60 00       	mov    $0x604940,%ecx
  401b2b:	8b 15 e7 2d 20 00    	mov    0x202de7(%rip),%edx        # 604918 <check_level>
  401b31:	bf 03 32 40 00       	mov    $0x403203,%edi
  401b36:	b8 00 00 00 00       	mov    $0x0,%eax
  401b3b:	e8 00 f1 ff ff       	callq  400c40 <printf@plt>
  401b40:	bf 01 00 00 00       	mov    $0x1,%edi
  401b45:	e8 66 f2 ff ff       	callq  400db0 <exit@plt>

0000000000401b4a <Gets>:
  401b4a:	41 54                	push   %r12
  401b4c:	55                   	push   %rbp
  401b4d:	53                   	push   %rbx
  401b4e:	49 89 fc             	mov    %rdi,%r12
  401b51:	c7 05 e9 39 20 00 00 	movl   $0x0,0x2039e9(%rip)        # 605544 <gets_cnt>
  401b58:	00 00 00 
  401b5b:	48 89 fb             	mov    %rdi,%rbx
  401b5e:	eb 11                	jmp    401b71 <Gets+0x27>
  401b60:	48 8d 6b 01          	lea    0x1(%rbx),%rbp
  401b64:	88 03                	mov    %al,(%rbx)
  401b66:	0f b6 f8             	movzbl %al,%edi
  401b69:	e8 42 ff ff ff       	callq  401ab0 <save_char>
  401b6e:	48 89 eb             	mov    %rbp,%rbx
  401b71:	48 8b 3d 98 2d 20 00 	mov    0x202d98(%rip),%rdi        # 604910 <infile>
  401b78:	e8 a3 f1 ff ff       	callq  400d20 <_IO_getc@plt>
  401b7d:	83 f8 ff             	cmp    $0xffffffff,%eax
  401b80:	74 05                	je     401b87 <Gets+0x3d>
  401b82:	83 f8 0a             	cmp    $0xa,%eax
  401b85:	75 d9                	jne    401b60 <Gets+0x16>
  401b87:	c6 03 00             	movb   $0x0,(%rbx)
  401b8a:	b8 00 00 00 00       	mov    $0x0,%eax
  401b8f:	e8 74 ff ff ff       	callq  401b08 <save_term>
  401b94:	4c 89 e0             	mov    %r12,%rax
  401b97:	5b                   	pop    %rbx
  401b98:	5d                   	pop    %rbp
  401b99:	41 5c                	pop    %r12
  401b9b:	c3                   	retq   

0000000000401b9c <notify_server>:
  401b9c:	83 3d 85 2d 20 00 00 	cmpl   $0x0,0x202d85(%rip)        # 604928 <is_checker>
  401ba3:	0f 85 8e 01 00 00    	jne    401d37 <notify_server+0x19b>
  401ba9:	53                   	push   %rbx
  401baa:	48 81 ec 10 40 00 00 	sub    $0x4010,%rsp
  401bb1:	89 fb                	mov    %edi,%ebx
  401bb3:	8b 05 8b 39 20 00    	mov    0x20398b(%rip),%eax        # 605544 <gets_cnt>
  401bb9:	83 c0 64             	add    $0x64,%eax
  401bbc:	3d 00 20 00 00       	cmp    $0x2000,%eax
  401bc1:	7e 19                	jle    401bdc <notify_server+0x40>
  401bc3:	bf 38 33 40 00       	mov    $0x403338,%edi
  401bc8:	b8 00 00 00 00       	mov    $0x0,%eax
  401bcd:	e8 6e f0 ff ff       	callq  400c40 <printf@plt>
  401bd2:	bf 01 00 00 00       	mov    $0x1,%edi
  401bd7:	e8 d4 f1 ff ff       	callq  400db0 <exit@plt>
  401bdc:	44 0f be 0d 64 39 20 	movsbl 0x203964(%rip),%r9d        # 605548 <target_prefix>
  401be3:	00 
  401be4:	83 3d dd 2c 20 00 00 	cmpl   $0x0,0x202cdd(%rip)        # 6048c8 <notify>
  401beb:	74 09                	je     401bf6 <notify_server+0x5a>
  401bed:	44 8b 05 2c 2d 20 00 	mov    0x202d2c(%rip),%r8d        # 604920 <authkey>
  401bf4:	eb 06                	jmp    401bfc <notify_server+0x60>
  401bf6:	41 b8 ff ff ff ff    	mov    $0xffffffff,%r8d
  401bfc:	85 db                	test   %ebx,%ebx
  401bfe:	74 07                	je     401c07 <notify_server+0x6b>
  401c00:	b9 19 32 40 00       	mov    $0x403219,%ecx
  401c05:	eb 05                	jmp    401c0c <notify_server+0x70>
  401c07:	b9 1e 32 40 00       	mov    $0x40321e,%ecx
  401c0c:	48 c7 44 24 08 40 49 	movq   $0x604940,0x8(%rsp)
  401c13:	60 00 
  401c15:	89 34 24             	mov    %esi,(%rsp)
  401c18:	8b 15 6a 29 20 00    	mov    0x20296a(%rip),%edx        # 604588 <target_id>
  401c1e:	be 23 32 40 00       	mov    $0x403223,%esi
  401c23:	48 8d bc 24 10 20 00 	lea    0x2010(%rsp),%rdi
  401c2a:	00 
  401c2b:	b8 00 00 00 00       	mov    $0x0,%eax
  401c30:	e8 6b f1 ff ff       	callq  400da0 <sprintf@plt>
  401c35:	83 3d 8c 2c 20 00 00 	cmpl   $0x0,0x202c8c(%rip)        # 6048c8 <notify>
  401c3c:	74 78                	je     401cb6 <notify_server+0x11a>
  401c3e:	85 db                	test   %ebx,%ebx
  401c40:	74 68                	je     401caa <notify_server+0x10e>
  401c42:	4c 8d 4c 24 10       	lea    0x10(%rsp),%r9
  401c47:	41 b8 00 00 00 00    	mov    $0x0,%r8d
  401c4d:	48 8d 8c 24 10 20 00 	lea    0x2010(%rsp),%rcx
  401c54:	00 
  401c55:	48 8b 15 34 29 20 00 	mov    0x202934(%rip),%rdx        # 604590 <lab>
  401c5c:	48 8b 35 35 29 20 00 	mov    0x202935(%rip),%rsi        # 604598 <course>
  401c63:	48 8b 3d 16 29 20 00 	mov    0x202916(%rip),%rdi        # 604580 <user_id>
  401c6a:	e8 a2 0f 00 00       	callq  402c11 <driver_post>
  401c6f:	85 c0                	test   %eax,%eax
  401c71:	79 1e                	jns    401c91 <notify_server+0xf5>
  401c73:	48 8d 74 24 10       	lea    0x10(%rsp),%rsi
  401c78:	bf 3f 32 40 00       	mov    $0x40323f,%edi
  401c7d:	b8 00 00 00 00       	mov    $0x0,%eax
  401c82:	e8 b9 ef ff ff       	callq  400c40 <printf@plt>
  401c87:	bf 01 00 00 00       	mov    $0x1,%edi
  401c8c:	e8 1f f1 ff ff       	callq  400db0 <exit@plt>
  401c91:	bf 68 33 40 00       	mov    $0x403368,%edi
  401c96:	e8 75 ef ff ff       	callq  400c10 <puts@plt>
  401c9b:	bf 4b 32 40 00       	mov    $0x40324b,%edi
  401ca0:	e8 6b ef ff ff       	callq  400c10 <puts@plt>
  401ca5:	e9 85 00 00 00       	jmpq   401d2f <notify_server+0x193>
  401caa:	bf 55 32 40 00       	mov    $0x403255,%edi
  401caf:	e8 5c ef ff ff       	callq  400c10 <puts@plt>
  401cb4:	eb 79                	jmp    401d2f <notify_server+0x193>
  401cb6:	85 db                	test   %ebx,%ebx
  401cb8:	74 08                	je     401cc2 <notify_server+0x126>
  401cba:	be 19 32 40 00       	mov    $0x403219,%esi
  401cbf:	90                   	nop
  401cc0:	eb 05                	jmp    401cc7 <notify_server+0x12b>
  401cc2:	be 1e 32 40 00       	mov    $0x40321e,%esi
  401cc7:	bf a0 33 40 00       	mov    $0x4033a0,%edi
  401ccc:	b8 00 00 00 00       	mov    $0x0,%eax
  401cd1:	e8 6a ef ff ff       	callq  400c40 <printf@plt>
  401cd6:	48 8b 35 a3 28 20 00 	mov    0x2028a3(%rip),%rsi        # 604580 <user_id>
  401cdd:	bf 5c 32 40 00       	mov    $0x40325c,%edi
  401ce2:	b8 00 00 00 00       	mov    $0x0,%eax
  401ce7:	e8 54 ef ff ff       	callq  400c40 <printf@plt>
  401cec:	48 8b 35 a5 28 20 00 	mov    0x2028a5(%rip),%rsi        # 604598 <course>
  401cf3:	bf 69 32 40 00       	mov    $0x403269,%edi
  401cf8:	b8 00 00 00 00       	mov    $0x0,%eax
  401cfd:	e8 3e ef ff ff       	callq  400c40 <printf@plt>
  401d02:	48 8b 35 87 28 20 00 	mov    0x202887(%rip),%rsi        # 604590 <lab>
  401d09:	bf 75 32 40 00       	mov    $0x403275,%edi
  401d0e:	b8 00 00 00 00       	mov    $0x0,%eax
  401d13:	e8 28 ef ff ff       	callq  400c40 <printf@plt>
  401d18:	48 8d b4 24 10 20 00 	lea    0x2010(%rsp),%rsi
  401d1f:	00 
  401d20:	bf 7e 32 40 00       	mov    $0x40327e,%edi
  401d25:	b8 00 00 00 00       	mov    $0x0,%eax
  401d2a:	e8 11 ef ff ff       	callq  400c40 <printf@plt>
  401d2f:	48 81 c4 10 40 00 00 	add    $0x4010,%rsp
  401d36:	5b                   	pop    %rbx
  401d37:	f3 c3                	repz retq 

0000000000401d39 <validate>:
  401d39:	53                   	push   %rbx
  401d3a:	89 fb                	mov    %edi,%ebx
  401d3c:	83 3d e5 2b 20 00 00 	cmpl   $0x0,0x202be5(%rip)        # 604928 <is_checker>
  401d43:	74 60                	je     401da5 <validate+0x6c>
  401d45:	39 3d d1 2b 20 00    	cmp    %edi,0x202bd1(%rip)        # 60491c <vlevel>
  401d4b:	74 14                	je     401d61 <validate+0x28>
  401d4d:	bf 8a 32 40 00       	mov    $0x40328a,%edi
  401d52:	e8 b9 ee ff ff       	callq  400c10 <puts@plt>
  401d57:	b8 00 00 00 00       	mov    $0x0,%eax
  401d5c:	e8 ba fd ff ff       	callq  401b1b <check_fail>
  401d61:	8b 35 b1 2b 20 00    	mov    0x202bb1(%rip),%esi        # 604918 <check_level>
  401d67:	39 fe                	cmp    %edi,%esi
  401d69:	74 1b                	je     401d86 <validate+0x4d>
  401d6b:	89 fa                	mov    %edi,%edx
  401d6d:	bf c8 33 40 00       	mov    $0x4033c8,%edi
  401d72:	b8 00 00 00 00       	mov    $0x0,%eax
  401d77:	e8 c4 ee ff ff       	callq  400c40 <printf@plt>
  401d7c:	b8 00 00 00 00       	mov    $0x0,%eax
  401d81:	e8 95 fd ff ff       	callq  401b1b <check_fail>
  401d86:	0f be 35 bb 37 20 00 	movsbl 0x2037bb(%rip),%esi        # 605548 <target_prefix>
  401d8d:	b9 40 49 60 00       	mov    $0x604940,%ecx
  401d92:	89 fa                	mov    %edi,%edx
  401d94:	bf a8 32 40 00       	mov    $0x4032a8,%edi
  401d99:	b8 00 00 00 00       	mov    $0x0,%eax
  401d9e:	e8 9d ee ff ff       	callq  400c40 <printf@plt>
  401da3:	eb 44                	jmp    401de9 <validate+0xb0>
  401da5:	39 3d 71 2b 20 00    	cmp    %edi,0x202b71(%rip)        # 60491c <vlevel>
  401dab:	74 18                	je     401dc5 <validate+0x8c>
  401dad:	bf 8a 32 40 00       	mov    $0x40328a,%edi
  401db2:	e8 59 ee ff ff       	callq  400c10 <puts@plt>
  401db7:	89 de                	mov    %ebx,%esi
  401db9:	bf 00 00 00 00       	mov    $0x0,%edi
  401dbe:	e8 d9 fd ff ff       	callq  401b9c <notify_server>
  401dc3:	eb 24                	jmp    401de9 <validate+0xb0>
  401dc5:	0f be 15 7c 37 20 00 	movsbl 0x20377c(%rip),%edx        # 605548 <target_prefix>
  401dcc:	89 fe                	mov    %edi,%esi
  401dce:	bf f0 33 40 00       	mov    $0x4033f0,%edi
  401dd3:	b8 00 00 00 00       	mov    $0x0,%eax
  401dd8:	e8 63 ee ff ff       	callq  400c40 <printf@plt>
  401ddd:	89 de                	mov    %ebx,%esi
  401ddf:	bf 01 00 00 00       	mov    $0x1,%edi
  401de4:	e8 b3 fd ff ff       	callq  401b9c <notify_server>
  401de9:	5b                   	pop    %rbx
  401dea:	c3                   	retq   

0000000000401deb <fail>:
  401deb:	48 83 ec 08          	sub    $0x8,%rsp
  401def:	83 3d 32 2b 20 00 00 	cmpl   $0x0,0x202b32(%rip)        # 604928 <is_checker>
  401df6:	74 0a                	je     401e02 <fail+0x17>
  401df8:	b8 00 00 00 00       	mov    $0x0,%eax
  401dfd:	e8 19 fd ff ff       	callq  401b1b <check_fail>
  401e02:	89 fe                	mov    %edi,%esi
  401e04:	bf 00 00 00 00       	mov    $0x0,%edi
  401e09:	e8 8e fd ff ff       	callq  401b9c <notify_server>
  401e0e:	48 83 c4 08          	add    $0x8,%rsp
  401e12:	c3                   	retq   

0000000000401e13 <bushandler>:
  401e13:	48 83 ec 08          	sub    $0x8,%rsp
  401e17:	83 3d 0a 2b 20 00 00 	cmpl   $0x0,0x202b0a(%rip)        # 604928 <is_checker>
  401e1e:	74 14                	je     401e34 <bushandler+0x21>
  401e20:	bf bd 32 40 00       	mov    $0x4032bd,%edi
  401e25:	e8 e6 ed ff ff       	callq  400c10 <puts@plt>
  401e2a:	b8 00 00 00 00       	mov    $0x0,%eax
  401e2f:	e8 e7 fc ff ff       	callq  401b1b <check_fail>
  401e34:	bf 28 34 40 00       	mov    $0x403428,%edi
  401e39:	e8 d2 ed ff ff       	callq  400c10 <puts@plt>
  401e3e:	bf c7 32 40 00       	mov    $0x4032c7,%edi
  401e43:	e8 c8 ed ff ff       	callq  400c10 <puts@plt>
  401e48:	be 00 00 00 00       	mov    $0x0,%esi
  401e4d:	bf 00 00 00 00       	mov    $0x0,%edi
  401e52:	e8 45 fd ff ff       	callq  401b9c <notify_server>
  401e57:	bf 01 00 00 00       	mov    $0x1,%edi
  401e5c:	e8 4f ef ff ff       	callq  400db0 <exit@plt>

0000000000401e61 <seghandler>:
  401e61:	48 83 ec 08          	sub    $0x8,%rsp
  401e65:	83 3d bc 2a 20 00 00 	cmpl   $0x0,0x202abc(%rip)        # 604928 <is_checker>
  401e6c:	74 14                	je     401e82 <seghandler+0x21>
  401e6e:	bf dd 32 40 00       	mov    $0x4032dd,%edi
  401e73:	e8 98 ed ff ff       	callq  400c10 <puts@plt>
  401e78:	b8 00 00 00 00       	mov    $0x0,%eax
  401e7d:	e8 99 fc ff ff       	callq  401b1b <check_fail>
  401e82:	bf 48 34 40 00       	mov    $0x403448,%edi
  401e87:	e8 84 ed ff ff       	callq  400c10 <puts@plt>
  401e8c:	bf c7 32 40 00       	mov    $0x4032c7,%edi
  401e91:	e8 7a ed ff ff       	callq  400c10 <puts@plt>
  401e96:	be 00 00 00 00       	mov    $0x0,%esi
  401e9b:	bf 00 00 00 00       	mov    $0x0,%edi
  401ea0:	e8 f7 fc ff ff       	callq  401b9c <notify_server>
  401ea5:	bf 01 00 00 00       	mov    $0x1,%edi
  401eaa:	e8 01 ef ff ff       	callq  400db0 <exit@plt>

0000000000401eaf <illegalhandler>:
  401eaf:	48 83 ec 08          	sub    $0x8,%rsp
  401eb3:	83 3d 6e 2a 20 00 00 	cmpl   $0x0,0x202a6e(%rip)        # 604928 <is_checker>
  401eba:	74 14                	je     401ed0 <illegalhandler+0x21>
  401ebc:	bf f0 32 40 00       	mov    $0x4032f0,%edi
  401ec1:	e8 4a ed ff ff       	callq  400c10 <puts@plt>
  401ec6:	b8 00 00 00 00       	mov    $0x0,%eax
  401ecb:	e8 4b fc ff ff       	callq  401b1b <check_fail>
  401ed0:	bf 70 34 40 00       	mov    $0x403470,%edi
  401ed5:	e8 36 ed ff ff       	callq  400c10 <puts@plt>
  401eda:	bf c7 32 40 00       	mov    $0x4032c7,%edi
  401edf:	e8 2c ed ff ff       	callq  400c10 <puts@plt>
  401ee4:	be 00 00 00 00       	mov    $0x0,%esi
  401ee9:	bf 00 00 00 00       	mov    $0x0,%edi
  401eee:	e8 a9 fc ff ff       	callq  401b9c <notify_server>
  401ef3:	bf 01 00 00 00       	mov    $0x1,%edi
  401ef8:	e8 b3 ee ff ff       	callq  400db0 <exit@plt>

0000000000401efd <sigalrmhandler>:
  401efd:	48 83 ec 08          	sub    $0x8,%rsp
  401f01:	83 3d 20 2a 20 00 00 	cmpl   $0x0,0x202a20(%rip)        # 604928 <is_checker>
  401f08:	74 14                	je     401f1e <sigalrmhandler+0x21>
  401f0a:	bf 04 33 40 00       	mov    $0x403304,%edi
  401f0f:	e8 fc ec ff ff       	callq  400c10 <puts@plt>
  401f14:	b8 00 00 00 00       	mov    $0x0,%eax
  401f19:	e8 fd fb ff ff       	callq  401b1b <check_fail>
  401f1e:	be 05 00 00 00       	mov    $0x5,%esi
  401f23:	bf a0 34 40 00       	mov    $0x4034a0,%edi
  401f28:	b8 00 00 00 00       	mov    $0x0,%eax
  401f2d:	e8 0e ed ff ff       	callq  400c40 <printf@plt>
  401f32:	be 00 00 00 00       	mov    $0x0,%esi
  401f37:	bf 00 00 00 00       	mov    $0x0,%edi
  401f3c:	e8 5b fc ff ff       	callq  401b9c <notify_server>
  401f41:	bf 01 00 00 00       	mov    $0x1,%edi
  401f46:	e8 65 ee ff ff       	callq  400db0 <exit@plt>

0000000000401f4b <launch>:
  401f4b:	55                   	push   %rbp
  401f4c:	48 89 e5             	mov    %rsp,%rbp
  401f4f:	48 89 fa             	mov    %rdi,%rdx
  401f52:	48 8d 47 1e          	lea    0x1e(%rdi),%rax
  401f56:	48 83 e0 f0          	and    $0xfffffffffffffff0,%rax
  401f5a:	48 29 c4             	sub    %rax,%rsp
  401f5d:	48 8d 7c 24 0f       	lea    0xf(%rsp),%rdi
  401f62:	48 83 e7 f0          	and    $0xfffffffffffffff0,%rdi
  401f66:	be f4 00 00 00       	mov    $0xf4,%esi
  401f6b:	e8 e0 ec ff ff       	callq  400c50 <memset@plt>
  401f70:	48 8b 05 69 29 20 00 	mov    0x202969(%rip),%rax        # 6048e0 <stdin@@GLIBC_2.2.5>
  401f77:	48 39 05 92 29 20 00 	cmp    %rax,0x202992(%rip)        # 604910 <infile>
  401f7e:	75 0f                	jne    401f8f <launch+0x44>
  401f80:	bf 0c 33 40 00       	mov    $0x40330c,%edi
  401f85:	b8 00 00 00 00       	mov    $0x0,%eax
  401f8a:	e8 b1 ec ff ff       	callq  400c40 <printf@plt>
  401f8f:	c7 05 83 29 20 00 00 	movl   $0x0,0x202983(%rip)        # 60491c <vlevel>
  401f96:	00 00 00 
  401f99:	b8 00 00 00 00       	mov    $0x0,%eax
  401f9e:	e8 b9 f9 ff ff       	callq  40195c <test>
  401fa3:	83 3d 7e 29 20 00 00 	cmpl   $0x0,0x20297e(%rip)        # 604928 <is_checker>
  401faa:	74 14                	je     401fc0 <launch+0x75>
  401fac:	bf 19 33 40 00       	mov    $0x403319,%edi
  401fb1:	e8 5a ec ff ff       	callq  400c10 <puts@plt>
  401fb6:	b8 00 00 00 00       	mov    $0x0,%eax
  401fbb:	e8 5b fb ff ff       	callq  401b1b <check_fail>
  401fc0:	bf 24 33 40 00       	mov    $0x403324,%edi
  401fc5:	e8 46 ec ff ff       	callq  400c10 <puts@plt>
  401fca:	c9                   	leaveq 
  401fcb:	c3                   	retq   

0000000000401fcc <stable_launch>:
  401fcc:	53                   	push   %rbx
  401fcd:	48 89 3d 34 29 20 00 	mov    %rdi,0x202934(%rip)        # 604908 <global_offset>
  401fd4:	41 b9 00 00 00 00    	mov    $0x0,%r9d
  401fda:	41 b8 00 00 00 00    	mov    $0x0,%r8d
  401fe0:	b9 32 01 00 00       	mov    $0x132,%ecx
  401fe5:	ba 07 00 00 00       	mov    $0x7,%edx
  401fea:	be 00 00 10 00       	mov    $0x100000,%esi
  401fef:	bf 00 60 58 55       	mov    $0x55586000,%edi
  401ff4:	e8 37 ec ff ff       	callq  400c30 <mmap@plt>
  401ff9:	48 89 c3             	mov    %rax,%rbx
  401ffc:	48 3d 00 60 58 55    	cmp    $0x55586000,%rax
  402002:	74 32                	je     402036 <stable_launch+0x6a>
  402004:	be 00 00 10 00       	mov    $0x100000,%esi
  402009:	48 89 c7             	mov    %rax,%rdi
  40200c:	e8 2f ed ff ff       	callq  400d40 <munmap@plt>
  402011:	ba 00 60 58 55       	mov    $0x55586000,%edx
  402016:	be d8 34 40 00       	mov    $0x4034d8,%esi
  40201b:	48 8b 3d ce 28 20 00 	mov    0x2028ce(%rip),%rdi        # 6048f0 <stderr@@GLIBC_2.2.5>
  402022:	b8 00 00 00 00       	mov    $0x0,%eax
  402027:	e8 94 ec ff ff       	callq  400cc0 <fprintf@plt>
  40202c:	bf 01 00 00 00       	mov    $0x1,%edi
  402031:	e8 7a ed ff ff       	callq  400db0 <exit@plt>
  402036:	48 8d 90 f8 ff 0f 00 	lea    0xffff8(%rax),%rdx
  40203d:	48 89 15 0c 35 20 00 	mov    %rdx,0x20350c(%rip)        # 605550 <stack_top>
  402044:	48 89 e0             	mov    %rsp,%rax
  402047:	48 89 d4             	mov    %rdx,%rsp
  40204a:	48 89 c2             	mov    %rax,%rdx
  40204d:	48 89 15 ac 28 20 00 	mov    %rdx,0x2028ac(%rip)        # 604900 <global_save_stack>
  402054:	48 8b 3d ad 28 20 00 	mov    0x2028ad(%rip),%rdi        # 604908 <global_offset>
  40205b:	e8 eb fe ff ff       	callq  401f4b <launch>
  402060:	48 8b 05 99 28 20 00 	mov    0x202899(%rip),%rax        # 604900 <global_save_stack>
  402067:	48 89 c4             	mov    %rax,%rsp
  40206a:	be 00 00 10 00       	mov    $0x100000,%esi
  40206f:	48 89 df             	mov    %rbx,%rdi
  402072:	e8 c9 ec ff ff       	callq  400d40 <munmap@plt>
  402077:	5b                   	pop    %rbx
  402078:	c3                   	retq   
  402079:	0f 1f 80 00 00 00 00 	nopl   0x0(%rax)

0000000000402080 <rio_readinitb>:
  402080:	89 37                	mov    %esi,(%rdi)
  402082:	c7 47 04 00 00 00 00 	movl   $0x0,0x4(%rdi)
  402089:	48 8d 47 10          	lea    0x10(%rdi),%rax
  40208d:	48 89 47 08          	mov    %rax,0x8(%rdi)
  402091:	c3                   	retq   

0000000000402092 <sigalrm_handler>:
  402092:	48 83 ec 08          	sub    $0x8,%rsp
  402096:	ba 00 00 00 00       	mov    $0x0,%edx
  40209b:	be 10 35 40 00       	mov    $0x403510,%esi
  4020a0:	48 8b 3d 49 28 20 00 	mov    0x202849(%rip),%rdi        # 6048f0 <stderr@@GLIBC_2.2.5>
  4020a7:	b8 00 00 00 00       	mov    $0x0,%eax
  4020ac:	e8 0f ec ff ff       	callq  400cc0 <fprintf@plt>
  4020b1:	bf 01 00 00 00       	mov    $0x1,%edi
  4020b6:	e8 f5 ec ff ff       	callq  400db0 <exit@plt>

00000000004020bb <urlencode>:
  4020bb:	41 54                	push   %r12
  4020bd:	55                   	push   %rbp
  4020be:	53                   	push   %rbx
  4020bf:	48 83 ec 10          	sub    $0x10,%rsp
  4020c3:	48 89 fb             	mov    %rdi,%rbx
  4020c6:	48 89 f5             	mov    %rsi,%rbp
  4020c9:	b8 00 00 00 00       	mov    $0x0,%eax
  4020ce:	48 c7 c1 ff ff ff ff 	mov    $0xffffffffffffffff,%rcx
  4020d5:	f2 ae                	repnz scas %es:(%rdi),%al
  4020d7:	48 f7 d1             	not    %rcx
  4020da:	8d 41 ff             	lea    -0x1(%rcx),%eax
  4020dd:	e9 93 00 00 00       	jmpq   402175 <urlencode+0xba>
  4020e2:	0f b6 13             	movzbl (%rbx),%edx
  4020e5:	80 fa 2a             	cmp    $0x2a,%dl
  4020e8:	0f 94 c1             	sete   %cl
  4020eb:	80 fa 2d             	cmp    $0x2d,%dl
  4020ee:	0f 94 c0             	sete   %al
  4020f1:	08 c1                	or     %al,%cl
  4020f3:	75 1f                	jne    402114 <urlencode+0x59>
  4020f5:	80 fa 2e             	cmp    $0x2e,%dl
  4020f8:	74 1a                	je     402114 <urlencode+0x59>
  4020fa:	80 fa 5f             	cmp    $0x5f,%dl
  4020fd:	74 15                	je     402114 <urlencode+0x59>
  4020ff:	8d 42 d0             	lea    -0x30(%rdx),%eax
  402102:	3c 09                	cmp    $0x9,%al
  402104:	76 0e                	jbe    402114 <urlencode+0x59>
  402106:	8d 42 bf             	lea    -0x41(%rdx),%eax
  402109:	3c 19                	cmp    $0x19,%al
  40210b:	76 07                	jbe    402114 <urlencode+0x59>
  40210d:	8d 42 9f             	lea    -0x61(%rdx),%eax
  402110:	3c 19                	cmp    $0x19,%al
  402112:	77 09                	ja     40211d <urlencode+0x62>
  402114:	88 55 00             	mov    %dl,0x0(%rbp)
  402117:	48 8d 6d 01          	lea    0x1(%rbp),%rbp
  40211b:	eb 51                	jmp    40216e <urlencode+0xb3>
  40211d:	80 fa 20             	cmp    $0x20,%dl
  402120:	75 0a                	jne    40212c <urlencode+0x71>
  402122:	c6 45 00 2b          	movb   $0x2b,0x0(%rbp)
  402126:	48 8d 6d 01          	lea    0x1(%rbp),%rbp
  40212a:	eb 42                	jmp    40216e <urlencode+0xb3>
  40212c:	8d 42 e0             	lea    -0x20(%rdx),%eax
  40212f:	3c 5f                	cmp    $0x5f,%al
  402131:	0f 96 c1             	setbe  %cl
  402134:	80 fa 09             	cmp    $0x9,%dl
  402137:	0f 94 c0             	sete   %al
  40213a:	08 c1                	or     %al,%cl
  40213c:	74 45                	je     402183 <urlencode+0xc8>
  40213e:	0f b6 d2             	movzbl %dl,%edx
  402141:	be a8 35 40 00       	mov    $0x4035a8,%esi
  402146:	48 89 e7             	mov    %rsp,%rdi
  402149:	b8 00 00 00 00       	mov    $0x0,%eax
  40214e:	e8 4d ec ff ff       	callq  400da0 <sprintf@plt>
  402153:	0f b6 04 24          	movzbl (%rsp),%eax
  402157:	88 45 00             	mov    %al,0x0(%rbp)
  40215a:	0f b6 44 24 01       	movzbl 0x1(%rsp),%eax
  40215f:	88 45 01             	mov    %al,0x1(%rbp)
  402162:	0f b6 44 24 02       	movzbl 0x2(%rsp),%eax
  402167:	88 45 02             	mov    %al,0x2(%rbp)
  40216a:	48 8d 6d 03          	lea    0x3(%rbp),%rbp
  40216e:	48 83 c3 01          	add    $0x1,%rbx
  402172:	44 89 e0             	mov    %r12d,%eax
  402175:	44 8d 60 ff          	lea    -0x1(%rax),%r12d
  402179:	85 c0                	test   %eax,%eax
  40217b:	0f 85 61 ff ff ff    	jne    4020e2 <urlencode+0x27>
  402181:	eb 05                	jmp    402188 <urlencode+0xcd>
  402183:	b8 ff ff ff ff       	mov    $0xffffffff,%eax
  402188:	48 83 c4 10          	add    $0x10,%rsp
  40218c:	5b                   	pop    %rbx
  40218d:	5d                   	pop    %rbp
  40218e:	41 5c                	pop    %r12
  402190:	c3                   	retq   

0000000000402191 <rio_writen>:
  402191:	41 55                	push   %r13
  402193:	41 54                	push   %r12
  402195:	55                   	push   %rbp
  402196:	53                   	push   %rbx
  402197:	48 83 ec 08          	sub    $0x8,%rsp
  40219b:	41 89 fc             	mov    %edi,%r12d
  40219e:	48 89 f5             	mov    %rsi,%rbp
  4021a1:	49 89 d5             	mov    %rdx,%r13
  4021a4:	48 89 d3             	mov    %rdx,%rbx
  4021a7:	eb 28                	jmp    4021d1 <rio_writen+0x40>
  4021a9:	48 89 da             	mov    %rbx,%rdx
  4021ac:	48 89 ee             	mov    %rbp,%rsi
  4021af:	44 89 e7             	mov    %r12d,%edi
  4021b2:	e8 69 ea ff ff       	callq  400c20 <write@plt>
  4021b7:	48 85 c0             	test   %rax,%rax
  4021ba:	7f 0f                	jg     4021cb <rio_writen+0x3a>
  4021bc:	e8 0f ea ff ff       	callq  400bd0 <__errno_location@plt>
  4021c1:	83 38 04             	cmpl   $0x4,(%rax)
  4021c4:	75 15                	jne    4021db <rio_writen+0x4a>
  4021c6:	b8 00 00 00 00       	mov    $0x0,%eax
  4021cb:	48 29 c3             	sub    %rax,%rbx
  4021ce:	48 01 c5             	add    %rax,%rbp
  4021d1:	48 85 db             	test   %rbx,%rbx
  4021d4:	75 d3                	jne    4021a9 <rio_writen+0x18>
  4021d6:	4c 89 e8             	mov    %r13,%rax
  4021d9:	eb 07                	jmp    4021e2 <rio_writen+0x51>
  4021db:	48 c7 c0 ff ff ff ff 	mov    $0xffffffffffffffff,%rax
  4021e2:	48 83 c4 08          	add    $0x8,%rsp
  4021e6:	5b                   	pop    %rbx
  4021e7:	5d                   	pop    %rbp
  4021e8:	41 5c                	pop    %r12
  4021ea:	41 5d                	pop    %r13
  4021ec:	c3                   	retq   

00000000004021ed <rio_read>:
  4021ed:	41 56                	push   %r14
  4021ef:	41 55                	push   %r13
  4021f1:	41 54                	push   %r12
  4021f3:	55                   	push   %rbp
  4021f4:	53                   	push   %rbx
  4021f5:	48 89 fb             	mov    %rdi,%rbx
  4021f8:	49 89 f6             	mov    %rsi,%r14
  4021fb:	49 89 d5             	mov    %rdx,%r13
  4021fe:	4c 8d 67 10          	lea    0x10(%rdi),%r12
  402202:	eb 2a                	jmp    40222e <rio_read+0x41>
  402204:	ba 00 20 00 00       	mov    $0x2000,%edx
  402209:	4c 89 e6             	mov    %r12,%rsi
  40220c:	8b 3b                	mov    (%rbx),%edi
  40220e:	e8 6d ea ff ff       	callq  400c80 <read@plt>
  402213:	89 43 04             	mov    %eax,0x4(%rbx)
  402216:	85 c0                	test   %eax,%eax
  402218:	79 0c                	jns    402226 <rio_read+0x39>
  40221a:	e8 b1 e9 ff ff       	callq  400bd0 <__errno_location@plt>
  40221f:	83 38 04             	cmpl   $0x4,(%rax)
  402222:	74 0a                	je     40222e <rio_read+0x41>
  402224:	eb 37                	jmp    40225d <rio_read+0x70>
  402226:	85 c0                	test   %eax,%eax
  402228:	74 3c                	je     402266 <rio_read+0x79>
  40222a:	4c 89 63 08          	mov    %r12,0x8(%rbx)
  40222e:	8b 6b 04             	mov    0x4(%rbx),%ebp
  402231:	85 ed                	test   %ebp,%ebp
  402233:	7e cf                	jle    402204 <rio_read+0x17>
  402235:	89 e8                	mov    %ebp,%eax
  402237:	4c 39 e8             	cmp    %r13,%rax
  40223a:	72 03                	jb     40223f <rio_read+0x52>
  40223c:	44 89 ed             	mov    %r13d,%ebp
  40223f:	4c 63 e5             	movslq %ebp,%r12
  402242:	48 8b 73 08          	mov    0x8(%rbx),%rsi
  402246:	4c 89 e2             	mov    %r12,%rdx
  402249:	4c 89 f7             	mov    %r14,%rdi
  40224c:	e8 9f ea ff ff       	callq  400cf0 <memcpy@plt>
  402251:	4c 01 63 08          	add    %r12,0x8(%rbx)
  402255:	29 6b 04             	sub    %ebp,0x4(%rbx)
  402258:	4c 89 e0             	mov    %r12,%rax
  40225b:	eb 0e                	jmp    40226b <rio_read+0x7e>
  40225d:	48 c7 c0 ff ff ff ff 	mov    $0xffffffffffffffff,%rax
  402264:	eb 05                	jmp    40226b <rio_read+0x7e>
  402266:	b8 00 00 00 00       	mov    $0x0,%eax
  40226b:	5b                   	pop    %rbx
  40226c:	5d                   	pop    %rbp
  40226d:	41 5c                	pop    %r12
  40226f:	41 5d                	pop    %r13
  402271:	41 5e                	pop    %r14
  402273:	c3                   	retq   

0000000000402274 <rio_readlineb>:
  402274:	41 55                	push   %r13
  402276:	41 54                	push   %r12
  402278:	55                   	push   %rbp
  402279:	53                   	push   %rbx
  40227a:	48 83 ec 18          	sub    $0x18,%rsp
  40227e:	49 89 fd             	mov    %rdi,%r13
  402281:	48 89 f5             	mov    %rsi,%rbp
  402284:	49 89 d4             	mov    %rdx,%r12
  402287:	bb 01 00 00 00       	mov    $0x1,%ebx
  40228c:	eb 3d                	jmp    4022cb <rio_readlineb+0x57>
  40228e:	ba 01 00 00 00       	mov    $0x1,%edx
  402293:	48 8d 74 24 0f       	lea    0xf(%rsp),%rsi
  402298:	4c 89 ef             	mov    %r13,%rdi
  40229b:	e8 4d ff ff ff       	callq  4021ed <rio_read>
  4022a0:	83 f8 01             	cmp    $0x1,%eax
  4022a3:	75 12                	jne    4022b7 <rio_readlineb+0x43>
  4022a5:	48 8d 55 01          	lea    0x1(%rbp),%rdx
  4022a9:	0f b6 44 24 0f       	movzbl 0xf(%rsp),%eax
  4022ae:	88 45 00             	mov    %al,0x0(%rbp)
  4022b1:	3c 0a                	cmp    $0xa,%al
  4022b3:	75 0f                	jne    4022c4 <rio_readlineb+0x50>
  4022b5:	eb 1b                	jmp    4022d2 <rio_readlineb+0x5e>
  4022b7:	85 c0                	test   %eax,%eax
  4022b9:	75 23                	jne    4022de <rio_readlineb+0x6a>
  4022bb:	48 83 fb 01          	cmp    $0x1,%rbx
  4022bf:	90                   	nop
  4022c0:	75 13                	jne    4022d5 <rio_readlineb+0x61>
  4022c2:	eb 23                	jmp    4022e7 <rio_readlineb+0x73>
  4022c4:	48 83 c3 01          	add    $0x1,%rbx
  4022c8:	48 89 d5             	mov    %rdx,%rbp
  4022cb:	4c 39 e3             	cmp    %r12,%rbx
  4022ce:	72 be                	jb     40228e <rio_readlineb+0x1a>
  4022d0:	eb 03                	jmp    4022d5 <rio_readlineb+0x61>
  4022d2:	48 89 d5             	mov    %rdx,%rbp
  4022d5:	c6 45 00 00          	movb   $0x0,0x0(%rbp)
  4022d9:	48 89 d8             	mov    %rbx,%rax
  4022dc:	eb 0e                	jmp    4022ec <rio_readlineb+0x78>
  4022de:	48 c7 c0 ff ff ff ff 	mov    $0xffffffffffffffff,%rax
  4022e5:	eb 05                	jmp    4022ec <rio_readlineb+0x78>
  4022e7:	b8 00 00 00 00       	mov    $0x0,%eax
  4022ec:	48 83 c4 18          	add    $0x18,%rsp
  4022f0:	5b                   	pop    %rbx
  4022f1:	5d                   	pop    %rbp
  4022f2:	41 5c                	pop    %r12
  4022f4:	41 5d                	pop    %r13
  4022f6:	c3                   	retq   

00000000004022f7 <submitr>:
  4022f7:	41 57                	push   %r15
  4022f9:	41 56                	push   %r14
  4022fb:	41 55                	push   %r13
  4022fd:	41 54                	push   %r12
  4022ff:	55                   	push   %rbp
  402300:	53                   	push   %rbx
  402301:	48 81 ec 48 a0 00 00 	sub    $0xa048,%rsp
  402308:	49 89 fc             	mov    %rdi,%r12
  40230b:	89 74 24 04          	mov    %esi,0x4(%rsp)
  40230f:	49 89 d7             	mov    %rdx,%r15
  402312:	49 89 ce             	mov    %rcx,%r14
  402315:	4c 89 44 24 08       	mov    %r8,0x8(%rsp)
  40231a:	4d 89 cd             	mov    %r9,%r13
  40231d:	48 8b 9c 24 80 a0 00 	mov    0xa080(%rsp),%rbx
  402324:	00 
  402325:	c7 84 24 1c 20 00 00 	movl   $0x0,0x201c(%rsp)
  40232c:	00 00 00 00 
  402330:	ba 00 00 00 00       	mov    $0x0,%edx
  402335:	be 01 00 00 00       	mov    $0x1,%esi
  40233a:	bf 02 00 00 00       	mov    $0x2,%edi
  40233f:	e8 8c ea ff ff       	callq  400dd0 <socket@plt>
  402344:	89 c5                	mov    %eax,%ebp
  402346:	85 c0                	test   %eax,%eax
  402348:	79 4e                	jns    402398 <submitr+0xa1>
  40234a:	48 b8 45 72 72 6f 72 	movabs $0x43203a726f727245,%rax
  402351:	3a 20 43 
  402354:	48 89 03             	mov    %rax,(%rbx)
  402357:	48 b8 6c 69 65 6e 74 	movabs $0x6e7520746e65696c,%rax
  40235e:	20 75 6e 
  402361:	48 89 43 08          	mov    %rax,0x8(%rbx)
  402365:	48 b8 61 62 6c 65 20 	movabs $0x206f7420656c6261,%rax
  40236c:	74 6f 20 
  40236f:	48 89 43 10          	mov    %rax,0x10(%rbx)
  402373:	48 b8 63 72 65 61 74 	movabs $0x7320657461657263,%rax
  40237a:	65 20 73 
  40237d:	48 89 43 18          	mov    %rax,0x18(%rbx)
  402381:	c7 43 20 6f 63 6b 65 	movl   $0x656b636f,0x20(%rbx)
  402388:	66 c7 43 24 74 00    	movw   $0x74,0x24(%rbx)
  40238e:	b8 ff ff ff ff       	mov    $0xffffffff,%eax
  402393:	e9 68 06 00 00       	jmpq   402a00 <submitr+0x709>
  402398:	4c 89 e7             	mov    %r12,%rdi
  40239b:	e8 10 e9 ff ff       	callq  400cb0 <gethostbyname@plt>
  4023a0:	48 85 c0             	test   %rax,%rax
  4023a3:	75 67                	jne    40240c <submitr+0x115>
  4023a5:	48 b8 45 72 72 6f 72 	movabs $0x44203a726f727245,%rax
  4023ac:	3a 20 44 
  4023af:	48 89 03             	mov    %rax,(%rbx)
  4023b2:	48 b8 4e 53 20 69 73 	movabs $0x6e7520736920534e,%rax
  4023b9:	20 75 6e 
  4023bc:	48 89 43 08          	mov    %rax,0x8(%rbx)
  4023c0:	48 b8 61 62 6c 65 20 	movabs $0x206f7420656c6261,%rax
  4023c7:	74 6f 20 
  4023ca:	48 89 43 10          	mov    %rax,0x10(%rbx)
  4023ce:	48 b8 72 65 73 6f 6c 	movabs $0x2065766c6f736572,%rax
  4023d5:	76 65 20 
  4023d8:	48 89 43 18          	mov    %rax,0x18(%rbx)
  4023dc:	48 b8 73 65 72 76 65 	movabs $0x6120726576726573,%rax
  4023e3:	72 20 61 
  4023e6:	48 89 43 20          	mov    %rax,0x20(%rbx)
  4023ea:	c7 43 28 64 64 72 65 	movl   $0x65726464,0x28(%rbx)
  4023f1:	66 c7 43 2c 73 73    	movw   $0x7373,0x2c(%rbx)
  4023f7:	c6 43 2e 00          	movb   $0x0,0x2e(%rbx)
  4023fb:	89 ef                	mov    %ebp,%edi
  4023fd:	e8 6e e8 ff ff       	callq  400c70 <close@plt>
  402402:	b8 ff ff ff ff       	mov    $0xffffffff,%eax
  402407:	e9 f4 05 00 00       	jmpq   402a00 <submitr+0x709>
  40240c:	48 c7 84 24 30 a0 00 	movq   $0x0,0xa030(%rsp)
  402413:	00 00 00 00 00 
  402418:	48 c7 84 24 38 a0 00 	movq   $0x0,0xa038(%rsp)
  40241f:	00 00 00 00 00 
  402424:	66 c7 84 24 30 a0 00 	movw   $0x2,0xa030(%rsp)
  40242b:	00 02 00 
  40242e:	48 8b 48 18          	mov    0x18(%rax),%rcx
  402432:	48 63 50 14          	movslq 0x14(%rax),%rdx
  402436:	48 8d b4 24 34 a0 00 	lea    0xa034(%rsp),%rsi
  40243d:	00 
  40243e:	48 8b 39             	mov    (%rcx),%rdi
  402441:	e8 0a e9 ff ff       	callq  400d50 <bcopy@plt>
  402446:	0f b7 44 24 04       	movzwl 0x4(%rsp),%eax
  40244b:	66 c1 c8 08          	ror    $0x8,%ax
  40244f:	66 89 84 24 32 a0 00 	mov    %ax,0xa032(%rsp)
  402456:	00 
  402457:	ba 10 00 00 00       	mov    $0x10,%edx
  40245c:	48 8d b4 24 30 a0 00 	lea    0xa030(%rsp),%rsi
  402463:	00 
  402464:	89 ef                	mov    %ebp,%edi
  402466:	e8 55 e9 ff ff       	callq  400dc0 <connect@plt>
  40246b:	85 c0                	test   %eax,%eax
  40246d:	79 59                	jns    4024c8 <submitr+0x1d1>
  40246f:	48 b8 45 72 72 6f 72 	movabs $0x55203a726f727245,%rax
  402476:	3a 20 55 
  402479:	48 89 03             	mov    %rax,(%rbx)
  40247c:	48 b8 6e 61 62 6c 65 	movabs $0x6f7420656c62616e,%rax
  402483:	20 74 6f 
  402486:	48 89 43 08          	mov    %rax,0x8(%rbx)
  40248a:	48 b8 20 63 6f 6e 6e 	movabs $0x7463656e6e6f6320,%rax
  402491:	65 63 74 
  402494:	48 89 43 10          	mov    %rax,0x10(%rbx)
  402498:	48 b8 20 74 6f 20 74 	movabs $0x20656874206f7420,%rax
  40249f:	68 65 20 
  4024a2:	48 89 43 18          	mov    %rax,0x18(%rbx)
  4024a6:	c7 43 20 73 65 72 76 	movl   $0x76726573,0x20(%rbx)
  4024ad:	66 c7 43 24 65 72    	movw   $0x7265,0x24(%rbx)
  4024b3:	c6 43 26 00          	movb   $0x0,0x26(%rbx)
  4024b7:	89 ef                	mov    %ebp,%edi
  4024b9:	e8 b2 e7 ff ff       	callq  400c70 <close@plt>
  4024be:	b8 ff ff ff ff       	mov    $0xffffffff,%eax
  4024c3:	e9 38 05 00 00       	jmpq   402a00 <submitr+0x709>
  4024c8:	48 c7 c2 ff ff ff ff 	mov    $0xffffffffffffffff,%rdx
  4024cf:	4c 89 ef             	mov    %r13,%rdi
  4024d2:	b8 00 00 00 00       	mov    $0x0,%eax
  4024d7:	48 89 d1             	mov    %rdx,%rcx
  4024da:	f2 ae                	repnz scas %es:(%rdi),%al
  4024dc:	48 f7 d1             	not    %rcx
  4024df:	48 89 ce             	mov    %rcx,%rsi
  4024e2:	4c 89 ff             	mov    %r15,%rdi
  4024e5:	48 89 d1             	mov    %rdx,%rcx
  4024e8:	f2 ae                	repnz scas %es:(%rdi),%al
  4024ea:	48 f7 d1             	not    %rcx
  4024ed:	49 89 c8             	mov    %rcx,%r8
  4024f0:	4c 89 f7             	mov    %r14,%rdi
  4024f3:	48 89 d1             	mov    %rdx,%rcx
  4024f6:	f2 ae                	repnz scas %es:(%rdi),%al
  4024f8:	49 29 c8             	sub    %rcx,%r8
  4024fb:	48 8b 7c 24 08       	mov    0x8(%rsp),%rdi
  402500:	48 89 d1             	mov    %rdx,%rcx
  402503:	f2 ae                	repnz scas %es:(%rdi),%al
  402505:	49 29 c8             	sub    %rcx,%r8
  402508:	48 8d 44 76 fd       	lea    -0x3(%rsi,%rsi,2),%rax
  40250d:	49 8d 44 00 7b       	lea    0x7b(%r8,%rax,1),%rax
  402512:	48 3d 00 20 00 00    	cmp    $0x2000,%rax
  402518:	76 72                	jbe    40258c <submitr+0x295>
  40251a:	48 b8 45 72 72 6f 72 	movabs $0x52203a726f727245,%rax
  402521:	3a 20 52 
  402524:	48 89 03             	mov    %rax,(%rbx)
  402527:	48 b8 65 73 75 6c 74 	movabs $0x747320746c757365,%rax
  40252e:	20 73 74 
  402531:	48 89 43 08          	mov    %rax,0x8(%rbx)
  402535:	48 b8 72 69 6e 67 20 	movabs $0x6f6f7420676e6972,%rax
  40253c:	74 6f 6f 
  40253f:	48 89 43 10          	mov    %rax,0x10(%rbx)
  402543:	48 b8 20 6c 61 72 67 	movabs $0x202e656772616c20,%rax
  40254a:	65 2e 20 
  40254d:	48 89 43 18          	mov    %rax,0x18(%rbx)
  402551:	48 b8 49 6e 63 72 65 	movabs $0x6573616572636e49,%rax
  402558:	61 73 65 
  40255b:	48 89 43 20          	mov    %rax,0x20(%rbx)
  40255f:	48 b8 20 53 55 42 4d 	movabs $0x5254494d42555320,%rax
  402566:	49 54 52 
  402569:	48 89 43 28          	mov    %rax,0x28(%rbx)
  40256d:	48 b8 5f 4d 41 58 42 	movabs $0x46554258414d5f,%rax
  402574:	55 46 00 
  402577:	48 89 43 30          	mov    %rax,0x30(%rbx)
  40257b:	89 ef                	mov    %ebp,%edi
  40257d:	e8 ee e6 ff ff       	callq  400c70 <close@plt>
  402582:	b8 ff ff ff ff       	mov    $0xffffffff,%eax
  402587:	e9 74 04 00 00       	jmpq   402a00 <submitr+0x709>
  40258c:	48 8d b4 24 20 40 00 	lea    0x4020(%rsp),%rsi
  402593:	00 
  402594:	b9 00 04 00 00       	mov    $0x400,%ecx
  402599:	b8 00 00 00 00       	mov    $0x0,%eax
  40259e:	48 89 f7             	mov    %rsi,%rdi
  4025a1:	f3 48 ab             	rep stos %rax,%es:(%rdi)
  4025a4:	4c 89 ef             	mov    %r13,%rdi
  4025a7:	e8 0f fb ff ff       	callq  4020bb <urlencode>
  4025ac:	85 c0                	test   %eax,%eax
  4025ae:	0f 89 8a 00 00 00    	jns    40263e <submitr+0x347>
  4025b4:	48 b8 45 72 72 6f 72 	movabs $0x52203a726f727245,%rax
  4025bb:	3a 20 52 
  4025be:	48 89 03             	mov    %rax,(%rbx)
  4025c1:	48 b8 65 73 75 6c 74 	movabs $0x747320746c757365,%rax
  4025c8:	20 73 74 
  4025cb:	48 89 43 08          	mov    %rax,0x8(%rbx)
  4025cf:	48 b8 72 69 6e 67 20 	movabs $0x6e6f6320676e6972,%rax
  4025d6:	63 6f 6e 
  4025d9:	48 89 43 10          	mov    %rax,0x10(%rbx)
  4025dd:	48 b8 74 61 69 6e 73 	movabs $0x6e6120736e696174,%rax
  4025e4:	20 61 6e 
  4025e7:	48 89 43 18          	mov    %rax,0x18(%rbx)
  4025eb:	48 b8 20 69 6c 6c 65 	movabs $0x6c6167656c6c6920,%rax
  4025f2:	67 61 6c 
  4025f5:	48 89 43 20          	mov    %rax,0x20(%rbx)
  4025f9:	48 b8 20 6f 72 20 75 	movabs $0x72706e7520726f20,%rax
  402600:	6e 70 72 
  402603:	48 89 43 28          	mov    %rax,0x28(%rbx)
  402607:	48 b8 69 6e 74 61 62 	movabs $0x20656c6261746e69,%rax
  40260e:	6c 65 20 
  402611:	48 89 43 30          	mov    %rax,0x30(%rbx)
  402615:	48 b8 63 68 61 72 61 	movabs $0x6574636172616863,%rax
  40261c:	63 74 65 
  40261f:	48 89 43 38          	mov    %rax,0x38(%rbx)
  402623:	66 c7 43 40 72 2e    	movw   $0x2e72,0x40(%rbx)
  402629:	c6 43 42 00          	movb   $0x0,0x42(%rbx)
  40262d:	89 ef                	mov    %ebp,%edi
  40262f:	e8 3c e6 ff ff       	callq  400c70 <close@plt>
  402634:	b8 ff ff ff ff       	mov    $0xffffffff,%eax
  402639:	e9 c2 03 00 00       	jmpq   402a00 <submitr+0x709>
  40263e:	4d 89 e1             	mov    %r12,%r9
  402641:	4c 8d 84 24 20 40 00 	lea    0x4020(%rsp),%r8
  402648:	00 
  402649:	4c 89 f9             	mov    %r15,%rcx
  40264c:	4c 89 f2             	mov    %r14,%rdx
  40264f:	be 38 35 40 00       	mov    $0x403538,%esi
  402654:	48 8d bc 24 20 60 00 	lea    0x6020(%rsp),%rdi
  40265b:	00 
  40265c:	b8 00 00 00 00       	mov    $0x0,%eax
  402661:	e8 3a e7 ff ff       	callq  400da0 <sprintf@plt>
  402666:	48 8d bc 24 20 60 00 	lea    0x6020(%rsp),%rdi
  40266d:	00 
  40266e:	b8 00 00 00 00       	mov    $0x0,%eax
  402673:	48 c7 c1 ff ff ff ff 	mov    $0xffffffffffffffff,%rcx
  40267a:	f2 ae                	repnz scas %es:(%rdi),%al
  40267c:	48 f7 d1             	not    %rcx
  40267f:	48 8d 51 ff          	lea    -0x1(%rcx),%rdx
  402683:	48 8d b4 24 20 60 00 	lea    0x6020(%rsp),%rsi
  40268a:	00 
  40268b:	89 ef                	mov    %ebp,%edi
  40268d:	e8 ff fa ff ff       	callq  402191 <rio_writen>
  402692:	48 85 c0             	test   %rax,%rax
  402695:	79 6e                	jns    402705 <submitr+0x40e>
  402697:	48 b8 45 72 72 6f 72 	movabs $0x43203a726f727245,%rax
  40269e:	3a 20 43 
  4026a1:	48 89 03             	mov    %rax,(%rbx)
  4026a4:	48 b8 6c 69 65 6e 74 	movabs $0x6e7520746e65696c,%rax
  4026ab:	20 75 6e 
  4026ae:	48 89 43 08          	mov    %rax,0x8(%rbx)
  4026b2:	48 b8 61 62 6c 65 20 	movabs $0x206f7420656c6261,%rax
  4026b9:	74 6f 20 
  4026bc:	48 89 43 10          	mov    %rax,0x10(%rbx)
  4026c0:	48 b8 77 72 69 74 65 	movabs $0x6f74206574697277,%rax
  4026c7:	20 74 6f 
  4026ca:	48 89 43 18          	mov    %rax,0x18(%rbx)
  4026ce:	48 b8 20 74 68 65 20 	movabs $0x7365722065687420,%rax
  4026d5:	72 65 73 
  4026d8:	48 89 43 20          	mov    %rax,0x20(%rbx)
  4026dc:	48 b8 75 6c 74 20 73 	movabs $0x7672657320746c75,%rax
  4026e3:	65 72 76 
  4026e6:	48 89 43 28          	mov    %rax,0x28(%rbx)
  4026ea:	66 c7 43 30 65 72    	movw   $0x7265,0x30(%rbx)
  4026f0:	c6 43 32 00          	movb   $0x0,0x32(%rbx)
  4026f4:	89 ef                	mov    %ebp,%edi
  4026f6:	e8 75 e5 ff ff       	callq  400c70 <close@plt>
  4026fb:	b8 ff ff ff ff       	mov    $0xffffffff,%eax
  402700:	e9 fb 02 00 00       	jmpq   402a00 <submitr+0x709>
  402705:	89 ee                	mov    %ebp,%esi
  402707:	48 8d bc 24 20 80 00 	lea    0x8020(%rsp),%rdi
  40270e:	00 
  40270f:	e8 6c f9 ff ff       	callq  402080 <rio_readinitb>
  402714:	ba 00 20 00 00       	mov    $0x2000,%edx
  402719:	48 8d b4 24 20 60 00 	lea    0x6020(%rsp),%rsi
  402720:	00 
  402721:	48 8d bc 24 20 80 00 	lea    0x8020(%rsp),%rdi
  402728:	00 
  402729:	e8 46 fb ff ff       	callq  402274 <rio_readlineb>
  40272e:	48 85 c0             	test   %rax,%rax
  402731:	7f 7d                	jg     4027b0 <submitr+0x4b9>
  402733:	48 b8 45 72 72 6f 72 	movabs $0x43203a726f727245,%rax
  40273a:	3a 20 43 
  40273d:	48 89 03             	mov    %rax,(%rbx)
  402740:	48 b8 6c 69 65 6e 74 	movabs $0x6e7520746e65696c,%rax
  402747:	20 75 6e 
  40274a:	48 89 43 08          	mov    %rax,0x8(%rbx)
  40274e:	48 b8 61 62 6c 65 20 	movabs $0x206f7420656c6261,%rax
  402755:	74 6f 20 
  402758:	48 89 43 10          	mov    %rax,0x10(%rbx)
  40275c:	48 b8 72 65 61 64 20 	movabs $0x7269662064616572,%rax
  402763:	66 69 72 
  402766:	48 89 43 18          	mov    %rax,0x18(%rbx)
  40276a:	48 b8 73 74 20 68 65 	movabs $0x6564616568207473,%rax
  402771:	61 64 65 
  402774:	48 89 43 20          	mov    %rax,0x20(%rbx)
  402778:	48 b8 72 20 66 72 6f 	movabs $0x72206d6f72662072,%rax
  40277f:	6d 20 72 
  402782:	48 89 43 28          	mov    %rax,0x28(%rbx)
  402786:	48 b8 65 73 75 6c 74 	movabs $0x657320746c757365,%rax
  40278d:	20 73 65 
  402790:	48 89 43 30          	mov    %rax,0x30(%rbx)
  402794:	c7 43 38 72 76 65 72 	movl   $0x72657672,0x38(%rbx)
  40279b:	c6 43 3c 00          	movb   $0x0,0x3c(%rbx)
  40279f:	89 ef                	mov    %ebp,%edi
  4027a1:	e8 ca e4 ff ff       	callq  400c70 <close@plt>
  4027a6:	b8 ff ff ff ff       	mov    $0xffffffff,%eax
  4027ab:	e9 50 02 00 00       	jmpq   402a00 <submitr+0x709>
  4027b0:	4c 8d 44 24 10       	lea    0x10(%rsp),%r8
  4027b5:	48 8d 8c 24 1c 20 00 	lea    0x201c(%rsp),%rcx
  4027bc:	00 
  4027bd:	48 8d 94 24 20 20 00 	lea    0x2020(%rsp),%rdx
  4027c4:	00 
  4027c5:	be af 35 40 00       	mov    $0x4035af,%esi
  4027ca:	48 8d bc 24 20 60 00 	lea    0x6020(%rsp),%rdi
  4027d1:	00 
  4027d2:	b8 00 00 00 00       	mov    $0x0,%eax
  4027d7:	e8 54 e5 ff ff       	callq  400d30 <__isoc99_sscanf@plt>
  4027dc:	e9 98 00 00 00       	jmpq   402879 <submitr+0x582>
  4027e1:	ba 00 20 00 00       	mov    $0x2000,%edx
  4027e6:	48 8d b4 24 20 60 00 	lea    0x6020(%rsp),%rsi
  4027ed:	00 
  4027ee:	48 8d bc 24 20 80 00 	lea    0x8020(%rsp),%rdi
  4027f5:	00 
  4027f6:	e8 79 fa ff ff       	callq  402274 <rio_readlineb>
  4027fb:	48 85 c0             	test   %rax,%rax
  4027fe:	7f 79                	jg     402879 <submitr+0x582>
  402800:	48 b8 45 72 72 6f 72 	movabs $0x43203a726f727245,%rax
  402807:	3a 20 43 
  40280a:	48 89 03             	mov    %rax,(%rbx)
  40280d:	48 b8 6c 69 65 6e 74 	movabs $0x6e7520746e65696c,%rax
  402814:	20 75 6e 
  402817:	48 89 43 08          	mov    %rax,0x8(%rbx)
  40281b:	48 b8 61 62 6c 65 20 	movabs $0x206f7420656c6261,%rax
  402822:	74 6f 20 
  402825:	48 89 43 10          	mov    %rax,0x10(%rbx)
  402829:	48 b8 72 65 61 64 20 	movabs $0x6165682064616572,%rax
  402830:	68 65 61 
  402833:	48 89 43 18          	mov    %rax,0x18(%rbx)
  402837:	48 b8 64 65 72 73 20 	movabs $0x6f72662073726564,%rax
  40283e:	66 72 6f 
  402841:	48 89 43 20          	mov    %rax,0x20(%rbx)
  402845:	48 b8 6d 20 74 68 65 	movabs $0x657220656874206d,%rax
  40284c:	20 72 65 
  40284f:	48 89 43 28          	mov    %rax,0x28(%rbx)
  402853:	48 b8 73 75 6c 74 20 	movabs $0x72657320746c7573,%rax
  40285a:	73 65 72 
  40285d:	48 89 43 30          	mov    %rax,0x30(%rbx)
  402861:	c7 43 38 76 65 72 00 	movl   $0x726576,0x38(%rbx)
  402868:	89 ef                	mov    %ebp,%edi
  40286a:	e8 01 e4 ff ff       	callq  400c70 <close@plt>
  40286f:	b8 ff ff ff ff       	mov    $0xffffffff,%eax
  402874:	e9 87 01 00 00       	jmpq   402a00 <submitr+0x709>
  402879:	0f b6 84 24 20 60 00 	movzbl 0x6020(%rsp),%eax
  402880:	00 
  402881:	83 e8 0d             	sub    $0xd,%eax
  402884:	75 15                	jne    40289b <submitr+0x5a4>
  402886:	0f b6 84 24 21 60 00 	movzbl 0x6021(%rsp),%eax
  40288d:	00 
  40288e:	83 e8 0a             	sub    $0xa,%eax
  402891:	75 08                	jne    40289b <submitr+0x5a4>
  402893:	0f b6 84 24 22 60 00 	movzbl 0x6022(%rsp),%eax
  40289a:	00 
  40289b:	85 c0                	test   %eax,%eax
  40289d:	0f 85 3e ff ff ff    	jne    4027e1 <submitr+0x4ea>
  4028a3:	ba 00 20 00 00       	mov    $0x2000,%edx
  4028a8:	48 8d b4 24 20 60 00 	lea    0x6020(%rsp),%rsi
  4028af:	00 
  4028b0:	48 8d bc 24 20 80 00 	lea    0x8020(%rsp),%rdi
  4028b7:	00 
  4028b8:	e8 b7 f9 ff ff       	callq  402274 <rio_readlineb>
  4028bd:	48 85 c0             	test   %rax,%rax
  4028c0:	0f 8f 83 00 00 00    	jg     402949 <submitr+0x652>
  4028c6:	48 b8 45 72 72 6f 72 	movabs $0x43203a726f727245,%rax
  4028cd:	3a 20 43 
  4028d0:	48 89 03             	mov    %rax,(%rbx)
  4028d3:	48 b8 6c 69 65 6e 74 	movabs $0x6e7520746e65696c,%rax
  4028da:	20 75 6e 
  4028dd:	48 89 43 08          	mov    %rax,0x8(%rbx)
  4028e1:	48 b8 61 62 6c 65 20 	movabs $0x206f7420656c6261,%rax
  4028e8:	74 6f 20 
  4028eb:	48 89 43 10          	mov    %rax,0x10(%rbx)
  4028ef:	48 b8 72 65 61 64 20 	movabs $0x6174732064616572,%rax
  4028f6:	73 74 61 
  4028f9:	48 89 43 18          	mov    %rax,0x18(%rbx)
  4028fd:	48 b8 74 75 73 20 6d 	movabs $0x7373656d20737574,%rax
  402904:	65 73 73 
  402907:	48 89 43 20          	mov    %rax,0x20(%rbx)
  40290b:	48 b8 61 67 65 20 66 	movabs $0x6d6f726620656761,%rax
  402912:	72 6f 6d 
  402915:	48 89 43 28          	mov    %rax,0x28(%rbx)
  402919:	48 b8 20 72 65 73 75 	movabs $0x20746c7573657220,%rax
  402920:	6c 74 20 
  402923:	48 89 43 30          	mov    %rax,0x30(%rbx)
  402927:	c7 43 38 73 65 72 76 	movl   $0x76726573,0x38(%rbx)
  40292e:	66 c7 43 3c 65 72    	movw   $0x7265,0x3c(%rbx)
  402934:	c6 43 3e 00          	movb   $0x0,0x3e(%rbx)
  402938:	89 ef                	mov    %ebp,%edi
  40293a:	e8 31 e3 ff ff       	callq  400c70 <close@plt>
  40293f:	b8 ff ff ff ff       	mov    $0xffffffff,%eax
  402944:	e9 b7 00 00 00       	jmpq   402a00 <submitr+0x709>
  402949:	8b 94 24 1c 20 00 00 	mov    0x201c(%rsp),%edx
  402950:	81 fa c8 00 00 00    	cmp    $0xc8,%edx
  402956:	74 28                	je     402980 <submitr+0x689>
  402958:	48 8d 4c 24 10       	lea    0x10(%rsp),%rcx
  40295d:	be 78 35 40 00       	mov    $0x403578,%esi
  402962:	48 89 df             	mov    %rbx,%rdi
  402965:	b8 00 00 00 00       	mov    $0x0,%eax
  40296a:	e8 31 e4 ff ff       	callq  400da0 <sprintf@plt>
  40296f:	89 ef                	mov    %ebp,%edi
  402971:	e8 fa e2 ff ff       	callq  400c70 <close@plt>
  402976:	b8 ff ff ff ff       	mov    $0xffffffff,%eax
  40297b:	e9 80 00 00 00       	jmpq   402a00 <submitr+0x709>
  402980:	48 8d b4 24 20 60 00 	lea    0x6020(%rsp),%rsi
  402987:	00 
  402988:	48 89 df             	mov    %rbx,%rdi
  40298b:	e8 70 e2 ff ff       	callq  400c00 <strcpy@plt>
  402990:	89 ef                	mov    %ebp,%edi
  402992:	e8 d9 e2 ff ff       	callq  400c70 <close@plt>
  402997:	0f b6 03             	movzbl (%rbx),%eax
  40299a:	83 e8 4f             	sub    $0x4f,%eax
  40299d:	75 18                	jne    4029b7 <submitr+0x6c0>
  40299f:	0f b6 53 01          	movzbl 0x1(%rbx),%edx
  4029a3:	83 ea 4b             	sub    $0x4b,%edx
  4029a6:	75 11                	jne    4029b9 <submitr+0x6c2>
  4029a8:	0f b6 53 02          	movzbl 0x2(%rbx),%edx
  4029ac:	83 ea 0a             	sub    $0xa,%edx
  4029af:	75 08                	jne    4029b9 <submitr+0x6c2>
  4029b1:	0f b6 53 03          	movzbl 0x3(%rbx),%edx
  4029b5:	eb 02                	jmp    4029b9 <submitr+0x6c2>
  4029b7:	89 c2                	mov    %eax,%edx
  4029b9:	85 d2                	test   %edx,%edx
  4029bb:	74 30                	je     4029ed <submitr+0x6f6>
  4029bd:	bf c0 35 40 00       	mov    $0x4035c0,%edi
  4029c2:	b9 05 00 00 00       	mov    $0x5,%ecx
  4029c7:	48 89 de             	mov    %rbx,%rsi
  4029ca:	f3 a6                	repz cmpsb %es:(%rdi),%ds:(%rsi)
  4029cc:	0f 97 c1             	seta   %cl
  4029cf:	0f 92 c2             	setb   %dl
  4029d2:	38 d1                	cmp    %dl,%cl
  4029d4:	74 1e                	je     4029f4 <submitr+0x6fd>
  4029d6:	85 c0                	test   %eax,%eax
  4029d8:	75 0d                	jne    4029e7 <submitr+0x6f0>
  4029da:	0f b6 43 01          	movzbl 0x1(%rbx),%eax
  4029de:	83 e8 4b             	sub    $0x4b,%eax
  4029e1:	75 04                	jne    4029e7 <submitr+0x6f0>
  4029e3:	0f b6 43 02          	movzbl 0x2(%rbx),%eax
  4029e7:	85 c0                	test   %eax,%eax
  4029e9:	75 10                	jne    4029fb <submitr+0x704>
  4029eb:	eb 13                	jmp    402a00 <submitr+0x709>
  4029ed:	b8 00 00 00 00       	mov    $0x0,%eax
  4029f2:	eb 0c                	jmp    402a00 <submitr+0x709>
  4029f4:	b8 00 00 00 00       	mov    $0x0,%eax
  4029f9:	eb 05                	jmp    402a00 <submitr+0x709>
  4029fb:	b8 ff ff ff ff       	mov    $0xffffffff,%eax
  402a00:	48 81 c4 48 a0 00 00 	add    $0xa048,%rsp
  402a07:	5b                   	pop    %rbx
  402a08:	5d                   	pop    %rbp
  402a09:	41 5c                	pop    %r12
  402a0b:	41 5d                	pop    %r13
  402a0d:	41 5e                	pop    %r14
  402a0f:	41 5f                	pop    %r15
  402a11:	c3                   	retq   

0000000000402a12 <init_timeout>:
  402a12:	53                   	push   %rbx
  402a13:	89 fb                	mov    %edi,%ebx
  402a15:	85 ff                	test   %edi,%edi
  402a17:	74 1f                	je     402a38 <init_timeout+0x26>
  402a19:	85 ff                	test   %edi,%edi
  402a1b:	79 05                	jns    402a22 <init_timeout+0x10>
  402a1d:	bb 00 00 00 00       	mov    $0x0,%ebx
  402a22:	be 92 20 40 00       	mov    $0x402092,%esi
  402a27:	bf 0e 00 00 00       	mov    $0xe,%edi
  402a2c:	e8 6f e2 ff ff       	callq  400ca0 <signal@plt>
  402a31:	89 df                	mov    %ebx,%edi
  402a33:	e8 28 e2 ff ff       	callq  400c60 <alarm@plt>
  402a38:	5b                   	pop    %rbx
  402a39:	c3                   	retq   

0000000000402a3a <init_driver>:
  402a3a:	55                   	push   %rbp
  402a3b:	53                   	push   %rbx
  402a3c:	48 83 ec 18          	sub    $0x18,%rsp
  402a40:	48 89 fd             	mov    %rdi,%rbp
  402a43:	be 01 00 00 00       	mov    $0x1,%esi
  402a48:	bf 0d 00 00 00       	mov    $0xd,%edi
  402a4d:	e8 4e e2 ff ff       	callq  400ca0 <signal@plt>
  402a52:	be 01 00 00 00       	mov    $0x1,%esi
  402a57:	bf 1d 00 00 00       	mov    $0x1d,%edi
  402a5c:	e8 3f e2 ff ff       	callq  400ca0 <signal@plt>
  402a61:	be 01 00 00 00       	mov    $0x1,%esi
  402a66:	bf 1d 00 00 00       	mov    $0x1d,%edi
  402a6b:	e8 30 e2 ff ff       	callq  400ca0 <signal@plt>
  402a70:	ba 00 00 00 00       	mov    $0x0,%edx
  402a75:	be 01 00 00 00       	mov    $0x1,%esi
  402a7a:	bf 02 00 00 00       	mov    $0x2,%edi
  402a7f:	e8 4c e3 ff ff       	callq  400dd0 <socket@plt>
  402a84:	89 c3                	mov    %eax,%ebx
  402a86:	85 c0                	test   %eax,%eax
  402a88:	79 4f                	jns    402ad9 <init_driver+0x9f>
  402a8a:	48 b8 45 72 72 6f 72 	movabs $0x43203a726f727245,%rax
  402a91:	3a 20 43 
  402a94:	48 89 45 00          	mov    %rax,0x0(%rbp)
  402a98:	48 b8 6c 69 65 6e 74 	movabs $0x6e7520746e65696c,%rax
  402a9f:	20 75 6e 
  402aa2:	48 89 45 08          	mov    %rax,0x8(%rbp)
  402aa6:	48 b8 61 62 6c 65 20 	movabs $0x206f7420656c6261,%rax
  402aad:	74 6f 20 
  402ab0:	48 89 45 10          	mov    %rax,0x10(%rbp)
  402ab4:	48 b8 63 72 65 61 74 	movabs $0x7320657461657263,%rax
  402abb:	65 20 73 
  402abe:	48 89 45 18          	mov    %rax,0x18(%rbp)
  402ac2:	c7 45 20 6f 63 6b 65 	movl   $0x656b636f,0x20(%rbp)
  402ac9:	66 c7 45 24 74 00    	movw   $0x74,0x24(%rbp)
  402acf:	b8 ff ff ff ff       	mov    $0xffffffff,%eax
  402ad4:	e9 31 01 00 00       	jmpq   402c0a <init_driver+0x1d0>
  402ad9:	bf f0 30 40 00       	mov    $0x4030f0,%edi
  402ade:	e8 cd e1 ff ff       	callq  400cb0 <gethostbyname@plt>
  402ae3:	48 85 c0             	test   %rax,%rax
  402ae6:	75 68                	jne    402b50 <init_driver+0x116>
  402ae8:	48 b8 45 72 72 6f 72 	movabs $0x44203a726f727245,%rax
  402aef:	3a 20 44 
  402af2:	48 89 45 00          	mov    %rax,0x0(%rbp)
  402af6:	48 b8 4e 53 20 69 73 	movabs $0x6e7520736920534e,%rax
  402afd:	20 75 6e 
  402b00:	48 89 45 08          	mov    %rax,0x8(%rbp)
  402b04:	48 b8 61 62 6c 65 20 	movabs $0x206f7420656c6261,%rax
  402b0b:	74 6f 20 
  402b0e:	48 89 45 10          	mov    %rax,0x10(%rbp)
  402b12:	48 b8 72 65 73 6f 6c 	movabs $0x2065766c6f736572,%rax
  402b19:	76 65 20 
  402b1c:	48 89 45 18          	mov    %rax,0x18(%rbp)
  402b20:	48 b8 73 65 72 76 65 	movabs $0x6120726576726573,%rax
  402b27:	72 20 61 
  402b2a:	48 89 45 20          	mov    %rax,0x20(%rbp)
  402b2e:	c7 45 28 64 64 72 65 	movl   $0x65726464,0x28(%rbp)
  402b35:	66 c7 45 2c 73 73    	movw   $0x7373,0x2c(%rbp)
  402b3b:	c6 45 2e 00          	movb   $0x0,0x2e(%rbp)
  402b3f:	89 df                	mov    %ebx,%edi
  402b41:	e8 2a e1 ff ff       	callq  400c70 <close@plt>
  402b46:	b8 ff ff ff ff       	mov    $0xffffffff,%eax
  402b4b:	e9 ba 00 00 00       	jmpq   402c0a <init_driver+0x1d0>
  402b50:	48 c7 04 24 00 00 00 	movq   $0x0,(%rsp)
  402b57:	00 
  402b58:	48 c7 44 24 08 00 00 	movq   $0x0,0x8(%rsp)
  402b5f:	00 00 
  402b61:	66 c7 04 24 02 00    	movw   $0x2,(%rsp)
  402b67:	48 8b 48 18          	mov    0x18(%rax),%rcx
  402b6b:	48 63 50 14          	movslq 0x14(%rax),%rdx
  402b6f:	48 8d 74 24 04       	lea    0x4(%rsp),%rsi
  402b74:	48 8b 39             	mov    (%rcx),%rdi
  402b77:	e8 d4 e1 ff ff       	callq  400d50 <bcopy@plt>
  402b7c:	66 c7 44 24 02 85 54 	movw   $0x5485,0x2(%rsp)
  402b83:	ba 10 00 00 00       	mov    $0x10,%edx
  402b88:	48 89 e6             	mov    %rsp,%rsi
  402b8b:	89 df                	mov    %ebx,%edi
  402b8d:	e8 2e e2 ff ff       	callq  400dc0 <connect@plt>
  402b92:	85 c0                	test   %eax,%eax
  402b94:	79 5e                	jns    402bf4 <init_driver+0x1ba>
  402b96:	48 b8 61 77 73 2e 63 	movabs $0x6d6f632e737761,%rax
  402b9d:	6f 6d 00 
  402ba0:	48 89 45 20          	mov    %rax,0x20(%rbp)
  402ba4:	48 b8 45 72 72 6f 72 	movabs $0x55203a726f727245,%rax
  402bab:	3a 20 55 
  402bae:	48 89 45 00          	mov    %rax,0x0(%rbp)
  402bb2:	48 b8 6e 61 62 6c 65 	movabs $0x6f7420656c62616e,%rax
  402bb9:	20 74 6f 
  402bbc:	48 89 45 08          	mov    %rax,0x8(%rbp)
  402bc0:	48 b8 20 63 6f 6e 6e 	movabs $0x7463656e6e6f6320,%rax
  402bc7:	65 63 74 
  402bca:	48 89 45 10          	mov    %rax,0x10(%rbp)
  402bce:	48 b8 20 74 6f 20 73 	movabs $0x76726573206f7420,%rax
  402bd5:	65 72 76 
  402bd8:	48 89 45 18          	mov    %rax,0x18(%rbp)
  402bdc:	66 c7 45 20 65 72    	movw   $0x7265,0x20(%rbp)
  402be2:	c6 45 22 00          	movb   $0x0,0x22(%rbp)
  402be6:	89 df                	mov    %ebx,%edi
  402be8:	e8 83 e0 ff ff       	callq  400c70 <close@plt>
  402bed:	b8 ff ff ff ff       	mov    $0xffffffff,%eax
  402bf2:	eb 16                	jmp    402c0a <init_driver+0x1d0>
  402bf4:	89 df                	mov    %ebx,%edi
  402bf6:	e8 75 e0 ff ff       	callq  400c70 <close@plt>
  402bfb:	66 c7 45 00 4f 4b    	movw   $0x4b4f,0x0(%rbp)
  402c01:	c6 45 02 00          	movb   $0x0,0x2(%rbp)
  402c05:	b8 00 00 00 00       	mov    $0x0,%eax
  402c0a:	48 83 c4 18          	add    $0x18,%rsp
  402c0e:	5b                   	pop    %rbx
  402c0f:	5d                   	pop    %rbp
  402c10:	c3                   	retq   

0000000000402c11 <driver_post>:
  402c11:	53                   	push   %rbx
  402c12:	48 83 ec 10          	sub    $0x10,%rsp
  402c16:	4c 89 cb             	mov    %r9,%rbx
  402c19:	45 85 c0             	test   %r8d,%r8d
  402c1c:	74 22                	je     402c40 <driver_post+0x2f>
  402c1e:	48 89 ce             	mov    %rcx,%rsi
  402c21:	bf c5 35 40 00       	mov    $0x4035c5,%edi
  402c26:	b8 00 00 00 00       	mov    $0x0,%eax
  402c2b:	e8 10 e0 ff ff       	callq  400c40 <printf@plt>
  402c30:	66 c7 03 4f 4b       	movw   $0x4b4f,(%rbx)
  402c35:	c6 43 02 00          	movb   $0x0,0x2(%rbx)
  402c39:	b8 00 00 00 00       	mov    $0x0,%eax
  402c3e:	eb 39                	jmp    402c79 <driver_post+0x68>
  402c40:	48 85 ff             	test   %rdi,%rdi
  402c43:	74 26                	je     402c6b <driver_post+0x5a>
  402c45:	80 3f 00             	cmpb   $0x0,(%rdi)
  402c48:	74 21                	je     402c6b <driver_post+0x5a>
  402c4a:	4c 89 0c 24          	mov    %r9,(%rsp)
  402c4e:	49 89 c9             	mov    %rcx,%r9
  402c51:	49 89 d0             	mov    %rdx,%r8
  402c54:	48 89 f9             	mov    %rdi,%rcx
  402c57:	48 89 f2             	mov    %rsi,%rdx
  402c5a:	be 54 85 00 00       	mov    $0x8554,%esi
  402c5f:	bf f0 30 40 00       	mov    $0x4030f0,%edi
  402c64:	e8 8e f6 ff ff       	callq  4022f7 <submitr>
  402c69:	eb 0e                	jmp    402c79 <driver_post+0x68>
  402c6b:	66 c7 03 4f 4b       	movw   $0x4b4f,(%rbx)
  402c70:	c6 43 02 00          	movb   $0x0,0x2(%rbx)
  402c74:	b8 00 00 00 00       	mov    $0x0,%eax
  402c79:	48 83 c4 10          	add    $0x10,%rsp
  402c7d:	5b                   	pop    %rbx
  402c7e:	c3                   	retq   
  402c7f:	90                   	nop

0000000000402c80 <check>:
  402c80:	89 f8                	mov    %edi,%eax
  402c82:	c1 e8 1c             	shr    $0x1c,%eax
  402c85:	85 c0                	test   %eax,%eax
  402c87:	74 1d                	je     402ca6 <check+0x26>
  402c89:	b9 00 00 00 00       	mov    $0x0,%ecx
  402c8e:	eb 0b                	jmp    402c9b <check+0x1b>
  402c90:	89 f8                	mov    %edi,%eax
  402c92:	d3 e8                	shr    %cl,%eax
  402c94:	3c 0a                	cmp    $0xa,%al
  402c96:	74 14                	je     402cac <check+0x2c>
  402c98:	83 c1 08             	add    $0x8,%ecx
  402c9b:	83 f9 1f             	cmp    $0x1f,%ecx
  402c9e:	7e f0                	jle    402c90 <check+0x10>
  402ca0:	b8 01 00 00 00       	mov    $0x1,%eax
  402ca5:	c3                   	retq   
  402ca6:	b8 00 00 00 00       	mov    $0x0,%eax
  402cab:	c3                   	retq   
  402cac:	b8 00 00 00 00       	mov    $0x0,%eax
  402cb1:	c3                   	retq   

0000000000402cb2 <gencookie>:
  402cb2:	53                   	push   %rbx
  402cb3:	83 c7 01             	add    $0x1,%edi
  402cb6:	e8 25 df ff ff       	callq  400be0 <srandom@plt>
  402cbb:	e8 50 e0 ff ff       	callq  400d10 <random@plt>
  402cc0:	89 c3                	mov    %eax,%ebx
  402cc2:	89 c7                	mov    %eax,%edi
  402cc4:	e8 b7 ff ff ff       	callq  402c80 <check>
  402cc9:	85 c0                	test   %eax,%eax
  402ccb:	74 ee                	je     402cbb <gencookie+0x9>
  402ccd:	89 d8                	mov    %ebx,%eax
  402ccf:	5b                   	pop    %rbx
  402cd0:	c3                   	retq   
  402cd1:	66 2e 0f 1f 84 00 00 	nopw   %cs:0x0(%rax,%rax,1)
  402cd8:	00 00 00 
  402cdb:	0f 1f 44 00 00       	nopl   0x0(%rax,%rax,1)

0000000000402ce0 <__libc_csu_init>:
  402ce0:	41 57                	push   %r15
  402ce2:	41 89 ff             	mov    %edi,%r15d
  402ce5:	41 56                	push   %r14
  402ce7:	49 89 f6             	mov    %rsi,%r14
  402cea:	41 55                	push   %r13
  402cec:	49 89 d5             	mov    %rdx,%r13
  402cef:	41 54                	push   %r12
  402cf1:	4c 8d 25 50 15 20 00 	lea    0x201550(%rip),%r12        # 604248 <__frame_dummy_init_array_entry>
  402cf8:	55                   	push   %rbp
  402cf9:	48 8d 2d 50 15 20 00 	lea    0x201550(%rip),%rbp        # 604250 <__init_array_end>
  402d00:	53                   	push   %rbx
  402d01:	4c 29 e5             	sub    %r12,%rbp
  402d04:	31 db                	xor    %ebx,%ebx
  402d06:	48 c1 fd 03          	sar    $0x3,%rbp
  402d0a:	48 83 ec 08          	sub    $0x8,%rsp
  402d0e:	e8 7d de ff ff       	callq  400b90 <_init>
  402d13:	48 85 ed             	test   %rbp,%rbp
  402d16:	74 1e                	je     402d36 <__libc_csu_init+0x56>
  402d18:	0f 1f 84 00 00 00 00 	nopl   0x0(%rax,%rax,1)
  402d1f:	00 
  402d20:	4c 89 ea             	mov    %r13,%rdx
  402d23:	4c 89 f6             	mov    %r14,%rsi
  402d26:	44 89 ff             	mov    %r15d,%edi
  402d29:	41 ff 14 dc          	callq  *(%r12,%rbx,8)
  402d2d:	48 83 c3 01          	add    $0x1,%rbx
  402d31:	48 39 eb             	cmp    %rbp,%rbx
  402d34:	75 ea                	jne    402d20 <__libc_csu_init+0x40>
  402d36:	48 83 c4 08          	add    $0x8,%rsp
  402d3a:	5b                   	pop    %rbx
  402d3b:	5d                   	pop    %rbp
  402d3c:	41 5c                	pop    %r12
  402d3e:	41 5d                	pop    %r13
  402d40:	41 5e                	pop    %r14
  402d42:	41 5f                	pop    %r15
  402d44:	c3                   	retq   
  402d45:	66 66 2e 0f 1f 84 00 	data16 nopw %cs:0x0(%rax,%rax,1)
  402d4c:	00 00 00 00 

0000000000402d50 <__libc_csu_fini>:
  402d50:	f3 c3                	repz retq 
  402d52:	66 90                	xchg   %ax,%ax

Disassembly of section .fini:

0000000000402d54 <_fini>:
  402d54:	48 83 ec 08          	sub    $0x8,%rsp
  402d58:	48 83 c4 08          	add    $0x8,%rsp
  402d5c:	c3                   	retq   
